---
triple:          'arm64-apple-darwin'
binary-path:     harness_libjpeg
relocations:
  - { offset: 0x26, size: 0x8, addend: 0x0, symName: _LLVMFuzzerTestOneInput, symObjAddr: 0x0, symBinAddr: 0x100003CD4, symSize: 0x494 }
  - { offset: 0x5BE, size: 0x8, addend: 0x0, symName: _LLVMFuzzerTestOneInput, symObjAddr: 0x0, symBinAddr: 0x100003CD4, symSize: 0x494 }
  - { offset: 0x628, size: 0x8, addend: 0x0, symName: _my_error_exit, symObjAddr: 0x494, symBinAddr: 0x100004168, symSize: 0x6C }
  - { offset: 0xF6F, size: 0x8, addend: 0x0, symName: __ZN6fuzzer18MutationDispatcher9CrossOverEPKhmS2_mPhm, symObjAddr: 0x0, symBinAddr: 0x100004234, symSize: 0x1A4 }
  - { offset: 0x7E31, size: 0x8, addend: 0x0, symName: __ZN6fuzzer18MutationDispatcher9CrossOverEPKhmS2_mPhm, symObjAddr: 0x0, symBinAddr: 0x100004234, symSize: 0x1A4 }
  - { offset: 0xA454, size: 0x8, addend: 0x0, symName: __ZN6fuzzer13BlockCoverage14AppendCoverageERKNSt3__112basic_stringIcNS1_11char_traitsIcEENS1_9allocatorIcEEEE, symObjAddr: 0x0, symBinAddr: 0x1000043D8, symSize: 0x1E0 }
  - { offset: 0xA47A, size: 0x8, addend: 0x0, symName: __ZN6fuzzer15CollectDataFlowERKNSt3__112basic_stringIcNS0_11char_traitsIcEENS0_9allocatorIcEEEES8_RKNS0_6vectorINS_9SizedFileENS4_ISA_EEEE, symObjAddr: 0x23E8, symBinAddr: 0x1000067C0, symSize: 0x548 }
  - { offset: 0xA4A5, size: 0x8, addend: 0x0, symName: __ZZN6fuzzer15CollectDataFlowERKNSt3__112basic_stringIcNS0_11char_traitsIcEENS0_9allocatorIcEEEES8_RKNS0_6vectorINS_9SizedFileENS4_ISA_EEEEE8DFSanEnv, symObjAddr: 0x631E, symBinAddr: 0x100044000, symSize: 0x0 }
  - { offset: 0xC23E, size: 0x8, addend: 0x0, symName: __ZNK6fuzzer7Command8toStringEv, symObjAddr: 0x2930, symBinAddr: 0x100006D08, symSize: 0x3F4 }
  - { offset: 0xC9AA, size: 0x8, addend: 0x0, symName: __ZNSt3__119piecewise_constructE, symObjAddr: 0x6341, symBinAddr: 0x10003F660, symSize: 0x0 }
  - { offset: 0x1C130, size: 0x8, addend: 0x0, symName: __ZNSt3__124__put_character_sequenceB8nn200100IcNS_11char_traitsIcEEEERNS_13basic_ostreamIT_T0_EES7_PKS4_m, symObjAddr: 0x31E8, symBinAddr: 0x1000075C0, symSize: 0x124 }
  - { offset: 0x2AD46, size: 0x8, addend: 0x0, symName: __ZNSt3__17getlineB8nn200100IcNS_11char_traitsIcEENS_9allocatorIcEEEERNS_13basic_istreamIT_T0_EES9_RNS_12basic_stringIS6_S7_T1_EES6_, symObjAddr: 0x8E0, symBinAddr: 0x100004CB8, symSize: 0x138 }
  - { offset: 0x2E911, size: 0x8, addend: 0x0, symName: __ZNSt3__120__throw_length_errorB8nn200100EPKc, symObjAddr: 0x2D38, symBinAddr: 0x100007110, symSize: 0x1C }
  - { offset: 0x2E93E, size: 0x8, addend: 0x0, symName: __ZSt28__throw_bad_array_new_lengthB8nn200100v, symObjAddr: 0x2D54, symBinAddr: 0x10000712C, symSize: 0x14 }
  - { offset: 0x2F37D, size: 0x8, addend: 0x0, symName: __ZNSt3__116__pad_and_outputB8nn200100IcNS_11char_traitsIcEEEENS_19ostreambuf_iteratorIT_T0_EES6_PKS4_S8_S8_RNS_8ios_baseES4_, symObjAddr: 0x330C, symBinAddr: 0x1000076E4, symSize: 0x224 }
  - { offset: 0x2F90C, size: 0x8, addend: 0x0, symName: __ZNSt3__112basic_stringIcNS_11char_traitsIcEENS_9allocatorIcEEE20__throw_length_errorB8nn200100Ev, symObjAddr: 0x3530, symBinAddr: 0x100007908, symSize: 0x14 }
  - { offset: 0x2F9C5, size: 0x8, addend: 0x0, symName: __ZNSt3__120__throw_out_of_rangeB8nn200100EPKc, symObjAddr: 0x3558, symBinAddr: 0x100007930, symSize: 0x1C }
  - { offset: 0x2F9F2, size: 0x8, addend: 0x0, symName: __ZNSt3__112basic_stringIcNS_11char_traitsIcEENS_9allocatorIcEEE25__init_copy_ctor_externalEPKcm, symObjAddr: 0x3574, symBinAddr: 0x10000794C, symSize: 0x88 }
  - { offset: 0x33851, size: 0x8, addend: 0x0, symName: __ZSt28__throw_bad_array_new_lengthB8nn200100v, symObjAddr: 0x2D54, symBinAddr: 0x10000712C, symSize: 0x14 }
  - { offset: 0x3386F, size: 0x8, addend: 0x0, symName: __ZNSt3__16vectorINS_12basic_stringIcNS_11char_traitsIcEENS_9allocatorIcEEEENS4_IS6_EEE6insertENS_11__wrap_iterIPKS6_EERSA_, symObjAddr: 0x2D68, symBinAddr: 0x100007140, symSize: 0x254 }
  - { offset: 0x35535, size: 0x8, addend: 0x0, symName: __ZN6fuzzer13BlockCoverage14AppendCoverageERKNSt3__112basic_stringIcNS1_11char_traitsIcEENS1_9allocatorIcEEEE, symObjAddr: 0x0, symBinAddr: 0x1000043D8, symSize: 0x1E0 }
  - { offset: 0x35893, size: 0x8, addend: 0x0, symName: __ZN6fuzzer13BlockCoverage14AppendCoverageERNSt3__113basic_istreamIcNS1_11char_traitsIcEEEE, symObjAddr: 0x1E0, symBinAddr: 0x1000045B8, symSize: 0x700 }
  - { offset: 0x36D0E, size: 0x8, addend: 0x0, symName: __ZNSt3__17getlineB8nn200100IcNS_11char_traitsIcEENS_9allocatorIcEEEERNS_13basic_istreamIT_T0_EES9_RNS_12basic_stringIS6_S7_T1_EES6_, symObjAddr: 0x8E0, symBinAddr: 0x100004CB8, symSize: 0x138 }
  - { offset: 0x377E5, size: 0x8, addend: 0x0, symName: __ZNSt3__112__hash_tableImNS_4hashImEENS_8equal_toImEENS_9allocatorImEEE25__emplace_unique_key_argsImJRKmEEENS_4pairINS_15__hash_iteratorIPNS_11__hash_nodeImPvEEEEbEERKT_DpOT0_, symObjAddr: 0x35FC, symBinAddr: 0x1000079D4, symSize: 0x334 }
  - { offset: 0x37D3A, size: 0x8, addend: 0x0, symName: __ZNSt3__112__hash_tableINS_17__hash_value_typeImNS_6vectorIjNS_9allocatorIjEEEEEENS_22__unordered_map_hasherImS6_NS_4hashImEENS_8equal_toImEELb1EEENS_21__unordered_map_equalImS6_SB_S9_Lb1EEENS3_IS6_EEE25__emplace_unique_key_argsImJNS_4pairIKmS5_EEEEENSI_INS_15__hash_iteratorIPNS_11__hash_nodeIS6_PvEEEEbEERKT_DpOT0_, symObjAddr: 0x3B10, symBinAddr: 0x100007EE8, symSize: 0x34C }
  - { offset: 0x3836D, size: 0x8, addend: 0x0, symName: __ZNSt3__16vectorIjNS_9allocatorIjEEE20__throw_length_errorB8nn200100Ev, symObjAddr: 0x3AFC, symBinAddr: 0x100007ED4, symSize: 0x14 }
  - { offset: 0x38385, size: 0x8, addend: 0x0, symName: __ZNSt3__112__hash_tableINS_17__hash_value_typeImNS_6vectorIjNS_9allocatorIjEEEEEENS_22__unordered_map_hasherImS6_NS_4hashImEENS_8equal_toImEELb1EEENS_21__unordered_map_equalImS6_SB_S9_Lb1EEENS3_IS6_EEE25__emplace_unique_key_argsImJNS_4pairIKmS5_EEEEENSI_INS_15__hash_iteratorIPNS_11__hash_nodeIS6_PvEEEEbEERKT_DpOT0_, symObjAddr: 0x3B10, symBinAddr: 0x100007EE8, symSize: 0x34C }
  - { offset: 0x38390, size: 0x8, addend: 0x0, symName: __ZNSt3__112basic_stringIcNS_11char_traitsIcEENS_9allocatorIcEEE20__throw_length_errorB8nn200100Ev, symObjAddr: 0x3530, symBinAddr: 0x100007908, symSize: 0x14 }
  - { offset: 0x383A8, size: 0x8, addend: 0x0, symName: __ZNSt3__112basic_stringIcNS_11char_traitsIcEENS_9allocatorIcEEE20__throw_out_of_rangeB8nn200100Ev, symObjAddr: 0x3544, symBinAddr: 0x10000791C, symSize: 0x14 }
  - { offset: 0x389DA, size: 0x8, addend: 0x0, symName: __ZNK6fuzzer13BlockCoverage15FunctionWeightsEm, symObjAddr: 0xA18, symBinAddr: 0x100004DF0, symSize: 0x36C }
  - { offset: 0x3923C, size: 0x8, addend: 0x0, symName: __ZN6fuzzer13DataFlowTrace12ReadCoverageERKNSt3__112basic_stringIcNS1_11char_traitsIcEENS1_9allocatorIcEEEE, symObjAddr: 0xD84, symBinAddr: 0x10000515C, symSize: 0x274 }
  - { offset: 0x39247, size: 0x8, addend: 0x0, symName: __ZNSt3__16vectorIdNS_9allocatorIdEEE20__throw_length_errorB8nn200100Ev, symObjAddr: 0x4028, symBinAddr: 0x100008400, symSize: 0x14 }
  - { offset: 0x3925F, size: 0x8, addend: 0x0, symName: __ZNKSt3__112__hash_tableINS_12basic_stringIcNS_11char_traitsIcEENS_9allocatorIcEEEENS_4hashIS6_EENS_8equal_toIS6_EENS4_IS6_EEE4findIS6_EENS_21__hash_const_iteratorIPNS_11__hash_nodeIS6_PvEEEERKT_, symObjAddr: 0x403C, symBinAddr: 0x100008414, symSize: 0x1C8 }
  - { offset: 0x39A8A, size: 0x8, addend: 0x0, symName: __ZN6fuzzer13DataFlowTrace12ReadCoverageERKNSt3__112basic_stringIcNS1_11char_traitsIcEENS1_9allocatorIcEEEE, symObjAddr: 0xD84, symBinAddr: 0x10000515C, symSize: 0x274 }
  - { offset: 0x3A3C0, size: 0x8, addend: 0x0, symName: __ZN6fuzzer13DataFlowTrace4InitERKNSt3__112basic_stringIcNS1_11char_traitsIcEENS1_9allocatorIcEEEEPS7_RNS1_6vectorINS_9SizedFileENS5_ISC_EEEERNS_6RandomE, symObjAddr: 0xFF8, symBinAddr: 0x1000053D0, symSize: 0x13F0 }
  - { offset: 0x3A3E7, size: 0x8, addend: 0x0, symName: __ZNKSt3__112__hash_tableINS_12basic_stringIcNS_11char_traitsIcEENS_9allocatorIcEEEENS_4hashIS6_EENS_8equal_toIS6_EENS4_IS6_EEE4findIS6_EENS_21__hash_const_iteratorIPNS_11__hash_nodeIS6_PvEEEERKT_, symObjAddr: 0x403C, symBinAddr: 0x100008414, symSize: 0x1C8 }
  - { offset: 0x3A754, size: 0x8, addend: 0x0, symName: __ZNSt3__112basic_stringIcNS_11char_traitsIcEENS_9allocatorIcEEE20__throw_out_of_rangeB8nn200100Ev, symObjAddr: 0x3544, symBinAddr: 0x10000791C, symSize: 0x14 }
  - { offset: 0x3A76C, size: 0x8, addend: 0x0, symName: __ZNSt3__120__throw_out_of_rangeB8nn200100EPKc, symObjAddr: 0x3558, symBinAddr: 0x100007930, symSize: 0x1C }
  - { offset: 0x3B60E, size: 0x8, addend: 0x0, symName: __ZN6fuzzer13DataFlowTrace4InitERKNSt3__112basic_stringIcNS1_11char_traitsIcEENS1_9allocatorIcEEEEPS7_RNS1_6vectorINS_9SizedFileENS5_ISC_EEEERNS_6RandomE, symObjAddr: 0xFF8, symBinAddr: 0x1000053D0, symSize: 0x13F0 }
  - { offset: 0x3F55C, size: 0x8, addend: 0x0, symName: __ZN6fuzzer15CollectDataFlowERKNSt3__112basic_stringIcNS0_11char_traitsIcEENS0_9allocatorIcEEEES8_RKNS0_6vectorINS_9SizedFileENS4_ISA_EEEE, symObjAddr: 0x23E8, symBinAddr: 0x1000067C0, symSize: 0x548 }
  - { offset: 0x3F571, size: 0x8, addend: 0x0, symName: __ZNSt3__112__hash_tableINS_12basic_stringIcNS_11char_traitsIcEENS_9allocatorIcEEEENS_4hashIS6_EENS_8equal_toIS6_EENS4_IS6_EEE25__emplace_unique_key_argsIS6_JS6_EEENS_4pairINS_15__hash_iteratorIPNS_11__hash_nodeIS6_PvEEEEbEERKT_DpOT0_, symObjAddr: 0x4C04, symBinAddr: 0x100008FDC, symSize: 0x3E0 }
  - { offset: 0x3FD19, size: 0x8, addend: 0x0, symName: __ZNSt3__112basic_stringIcNS_11char_traitsIcEENS_9allocatorIcEEE25__init_copy_ctor_externalEPKcm, symObjAddr: 0x3574, symBinAddr: 0x10000794C, symSize: 0x88 }
  - { offset: 0x3FEDE, size: 0x8, addend: 0x0, symName: __ZNSt3__112__hash_tableImNS_4hashImEENS_8equal_toImEENS_9allocatorImEEE25__emplace_unique_key_argsImJRKmEEENS_4pairINS_15__hash_iteratorIPNS_11__hash_nodeImPvEEEEbEERKT_DpOT0_, symObjAddr: 0x35FC, symBinAddr: 0x1000079D4, symSize: 0x334 }
  - { offset: 0x3FEE9, size: 0x8, addend: 0x0, symName: __ZNSt3__131piecewise_constant_distributionIdE10param_typeC2INS_11__wrap_iterIPdEES6_EET_S7_T0_, symObjAddr: 0x51B0, symBinAddr: 0x100009588, symSize: 0x18C }
  - { offset: 0x406C6, size: 0x8, addend: 0x0, symName: __ZNSt3__16vectorIdNS_9allocatorIdEEE6assignEmRKd, symObjAddr: 0x533C, symBinAddr: 0x100009714, symSize: 0x1E8 }
  - { offset: 0x40708, size: 0x8, addend: 0x0, symName: __ZNSt3__112__hash_tableINS_17__hash_value_typeINS_12basic_stringIcNS_11char_traitsIcEENS_9allocatorIcEEEENS_6vectorIhNS5_IhEEEEEENS_22__unordered_map_hasherIS7_SB_NS_4hashIS7_EENS_8equal_toIS7_EELb1EEENS_21__unordered_map_equalIS7_SB_SG_SE_Lb1EEENS5_ISB_EEE25__emplace_unique_key_argsIS7_JRKNS_21piecewise_construct_tENS_5tupleIJRKS7_EEENSQ_IJEEEEEENS_4pairINS_15__hash_iteratorIPNS_11__hash_nodeISB_PvEEEEbEERKT_DpOT0_, symObjAddr: 0x5A28, symBinAddr: 0x100009E00, symSize: 0x3FC }
  - { offset: 0x40FCB, size: 0x8, addend: 0x0, symName: __ZNSt3__16vectorINS_12basic_stringIcNS_11char_traitsIcEENS_9allocatorIcEEEENS4_IS6_EEE20__throw_length_errorB8nn200100Ev, symObjAddr: 0x31D4, symBinAddr: 0x1000075AC, symSize: 0x14 }
  - { offset: 0x40FE3, size: 0x8, addend: 0x0, symName: __ZNSt3__124__put_character_sequenceB8nn200100IcNS_11char_traitsIcEEEERNS_13basic_ostreamIT_T0_EES7_PKS4_m, symObjAddr: 0x31E8, symBinAddr: 0x1000075C0, symSize: 0x124 }
  - { offset: 0x40FEE, size: 0x8, addend: 0x0, symName: __ZNSt3__16vectorIhNS_9allocatorIhEEE20__throw_length_errorB8nn200100Ev, symObjAddr: 0x2D24, symBinAddr: 0x1000070FC, symSize: 0x14 }
  - { offset: 0x41006, size: 0x8, addend: 0x0, symName: __ZNSt3__120__throw_length_errorB8nn200100EPKc, symObjAddr: 0x2D38, symBinAddr: 0x100007110, symSize: 0x1C }
  - { offset: 0x41195, size: 0x8, addend: 0x0, symName: __ZNSt3__16vectorINS_12basic_stringIcNS_11char_traitsIcEENS_9allocatorIcEEEENS4_IS6_EEE6insertENS_11__wrap_iterIPKS6_EERSA_, symObjAddr: 0x2D68, symBinAddr: 0x100007140, symSize: 0x254 }
  - { offset: 0x41A91, size: 0x8, addend: 0x0, symName: __ZNSt3__114__split_bufferINS_12basic_stringIcNS_11char_traitsIcEENS_9allocatorIcEEEERNS4_IS6_EEE12emplace_backIJRKS6_EEEvDpOT_, symObjAddr: 0x2FBC, symBinAddr: 0x100007394, symSize: 0x218 }
  - { offset: 0x41A9C, size: 0x8, addend: 0x0, symName: __ZNK6fuzzer7Command8toStringEv, symObjAddr: 0x2930, symBinAddr: 0x100006D08, symSize: 0x3F4 }
  - { offset: 0x42798, size: 0x8, addend: 0x0, symName: __ZNSt3__16vectorIhNS_9allocatorIhEEE20__throw_length_errorB8nn200100Ev, symObjAddr: 0x2D24, symBinAddr: 0x1000070FC, symSize: 0x14 }
  - { offset: 0x42D4B, size: 0x8, addend: 0x0, symName: __ZNSt3__114__split_bufferINS_12basic_stringIcNS_11char_traitsIcEENS_9allocatorIcEEEERNS4_IS6_EEE12emplace_backIJRKS6_EEEvDpOT_, symObjAddr: 0x2FBC, symBinAddr: 0x100007394, symSize: 0x218 }
  - { offset: 0x435A2, size: 0x8, addend: 0x0, symName: __ZNSt3__16vectorINS_12basic_stringIcNS_11char_traitsIcEENS_9allocatorIcEEEENS4_IS6_EEE20__throw_length_errorB8nn200100Ev, symObjAddr: 0x31D4, symBinAddr: 0x1000075AC, symSize: 0x14 }
  - { offset: 0x43BD5, size: 0x8, addend: 0x0, symName: __ZNSt3__112__hash_tableImNS_4hashImEENS_8equal_toImEENS_9allocatorImEEE11__do_rehashILb1EEEvm, symObjAddr: 0x3930, symBinAddr: 0x100007D08, symSize: 0x1CC }
  - { offset: 0x43FB9, size: 0x8, addend: 0x0, symName: __ZNSt3__16vectorIjNS_9allocatorIjEEE20__throw_length_errorB8nn200100Ev, symObjAddr: 0x3AFC, symBinAddr: 0x100007ED4, symSize: 0x14 }
  - { offset: 0x4431D, size: 0x8, addend: 0x0, symName: __ZNSt3__112__hash_tableINS_17__hash_value_typeImNS_6vectorIjNS_9allocatorIjEEEEEENS_22__unordered_map_hasherImS6_NS_4hashImEENS_8equal_toImEELb1EEENS_21__unordered_map_equalImS6_SB_S9_Lb1EEENS3_IS6_EEE11__do_rehashILb1EEEvm, symObjAddr: 0x3E5C, symBinAddr: 0x100008234, symSize: 0x1CC }
  - { offset: 0x44701, size: 0x8, addend: 0x0, symName: __ZNSt3__16vectorIdNS_9allocatorIdEEE20__throw_length_errorB8nn200100Ev, symObjAddr: 0x4028, symBinAddr: 0x100008400, symSize: 0x14 }
  - { offset: 0x448E6, size: 0x8, addend: 0x0, symName: __ZNKSt3__121__murmur2_or_cityhashImLm64EEclB8nn200100EPKvm, symObjAddr: 0x4204, symBinAddr: 0x1000085DC, symSize: 0x66C }
  - { offset: 0x45850, size: 0x8, addend: 0x0, symName: __ZNSt3__121__murmur2_or_cityhashImLm64EE18__hash_len_0_to_16B8nn200100EPKcm, symObjAddr: 0x4870, symBinAddr: 0x100008C48, symSize: 0x198 }
  - { offset: 0x45AE8, size: 0x8, addend: 0x0, symName: __ZNSt3__121__murmur2_or_cityhashImLm64EE19__hash_len_33_to_64B8nn200100EPKcm, symObjAddr: 0x4A08, symBinAddr: 0x100008DE0, symSize: 0x1FC }
  - { offset: 0x46192, size: 0x8, addend: 0x0, symName: __ZNSt3__112__hash_tableINS_12basic_stringIcNS_11char_traitsIcEENS_9allocatorIcEEEENS_4hashIS6_EENS_8equal_toIS6_EENS4_IS6_EEE11__do_rehashILb1EEEvm, symObjAddr: 0x4FE4, symBinAddr: 0x1000093BC, symSize: 0x1CC }
  - { offset: 0x46576, size: 0x8, addend: 0x0, symName: __ZNSt3__131piecewise_constant_distributionIdE10param_typeC2INS_11__wrap_iterIPdEES6_EET_S7_T0_, symObjAddr: 0x51B0, symBinAddr: 0x100009588, symSize: 0x18C }
  - { offset: 0x46A18, size: 0x8, addend: 0x0, symName: __ZNSt3__16vectorIdNS_9allocatorIdEEE8__appendEm, symObjAddr: 0x5884, symBinAddr: 0x100009C5C, symSize: 0x1A4 }
  - { offset: 0x46EA3, size: 0x8, addend: 0x0, symName: __ZNSt3__112__hash_tableINS_17__hash_value_typeINS_12basic_stringIcNS_11char_traitsIcEENS_9allocatorIcEEEENS_6vectorIhNS5_IhEEEEEENS_22__unordered_map_hasherIS7_SB_NS_4hashIS7_EENS_8equal_toIS7_EELb1EEENS_21__unordered_map_equalIS7_SB_SG_SE_Lb1EEENS5_ISB_EEE25__emplace_unique_key_argsIS7_JRKNS_21piecewise_construct_tENS_5tupleIJRKS7_EEENSQ_IJEEEEEENS_4pairINS_15__hash_iteratorIPNS_11__hash_nodeISB_PvEEEEbEERKT_DpOT0_, symObjAddr: 0x5A28, symBinAddr: 0x100009E00, symSize: 0x3FC }
  - { offset: 0x46EAE, size: 0x8, addend: 0x0, symName: __ZNSt3__16vectorIdNS_9allocatorIdEEE6assignEmRKd, symObjAddr: 0x533C, symBinAddr: 0x100009714, symSize: 0x1E8 }
  - { offset: 0x473A6, size: 0x8, addend: 0x0, symName: __ZNSt3__16vectorIdNS_9allocatorIdEEE9push_backB8nn200100ERKd, symObjAddr: 0x5524, symBinAddr: 0x1000098FC, symSize: 0xF8 }
  - { offset: 0x473B1, size: 0x8, addend: 0x0, symName: __ZNSt3__16vectorIdNS_9allocatorIdEEE9push_backB8nn200100ERKd, symObjAddr: 0x5524, symBinAddr: 0x1000098FC, symSize: 0xF8 }
  - { offset: 0x477F8, size: 0x8, addend: 0x0, symName: __ZNSt3__131piecewise_constant_distributionIdE10param_type6__initEv, symObjAddr: 0x561C, symBinAddr: 0x1000099F4, symSize: 0x268 }
  - { offset: 0x47803, size: 0x8, addend: 0x0, symName: __ZNSt3__131piecewise_constant_distributionIdE10param_type6__initEv, symObjAddr: 0x561C, symBinAddr: 0x1000099F4, symSize: 0x268 }
  - { offset: 0x481B2, size: 0x8, addend: 0x0, symName: __ZNSt3__112__hash_tableINS_17__hash_value_typeINS_12basic_stringIcNS_11char_traitsIcEENS_9allocatorIcEEEENS_6vectorIhNS5_IhEEEEEENS_22__unordered_map_hasherIS7_SB_NS_4hashIS7_EENS_8equal_toIS7_EELb1EEENS_21__unordered_map_equalIS7_SB_SG_SE_Lb1EEENS5_ISB_EEE11__do_rehashILb1EEEvm, symObjAddr: 0x5E24, symBinAddr: 0x10000A1FC, symSize: 0x1CC }
  - { offset: 0x4A585, size: 0x8, addend: 0x0, symName: __ZN6fuzzerL2MuE, symObjAddr: 0x9920, symBinAddr: 0x100044028, symSize: 0x0 }
  - { offset: 0x4A5A0, size: 0x8, addend: 0x0, symName: __ZN6fuzzer2EFE, symObjAddr: 0x1517B8, symBinAddr: 0x100044200, symSize: 0x0 }
  - { offset: 0x4A6C5, size: 0x8, addend: 0x0, symName: __MergedGlobals, symObjAddr: 0x1517C0, symBinAddr: 0x100077E00, symSize: 0x0 }
  - { offset: 0x4AAED, size: 0x8, addend: 0x0, symName: __MergedGlobals, symObjAddr: 0x1517C0, symBinAddr: 0x100077E00, symSize: 0x0 }
  - { offset: 0x4AB09, size: 0x8, addend: 0x0, symName: __MergedGlobals, symObjAddr: 0x1517C0, symBinAddr: 0x100077E00, symSize: 0x0 }
  - { offset: 0x4AB32, size: 0x8, addend: 0x0, symName: __ZN6fuzzerL16FlagDescriptionsE, symObjAddr: 0xC980, symBinAddr: 0x100040588, symSize: 0x0 }
  - { offset: 0x4C8F3, size: 0x8, addend: 0x0, symName: __ZN6fuzzer17CloneArgsWithoutXERKNSt3__16vectorINS0_12basic_stringIcNS0_11char_traitsIcEENS0_9allocatorIcEEEENS5_IS7_EEEEPKcSD_, symObjAddr: 0x4, symBinAddr: 0x10000A3CC, symSize: 0x22C }
  - { offset: 0x4D198, size: 0x8, addend: 0x0, symName: __ZN6fuzzer10RunOneTestEPNS_6FuzzerEPKcm, symObjAddr: 0x230, symBinAddr: 0x10000A5F8, symSize: 0x15C }
  - { offset: 0x4D1A3, size: 0x8, addend: 0x0, symName: __ZN6fuzzer10RunOneTestEPNS_6FuzzerEPKcm, symObjAddr: 0x230, symBinAddr: 0x10000A5F8, symSize: 0x15C }
  - { offset: 0x4D800, size: 0x8, addend: 0x0, symName: __ZNSt3__112basic_stringIcNS_11char_traitsIcEENS_9allocatorIcEEEC1B8nn200100ILi0EEEPKc, symObjAddr: 0x38C, symBinAddr: 0x10000A754, symSize: 0xA4 }
  - { offset: 0x4D82A, size: 0x8, addend: 0x0, symName: __ZN6fuzzer17CleanseCrashInputERKNSt3__16vectorINS0_12basic_stringIcNS0_11char_traitsIcEENS0_9allocatorIcEEEENS5_IS7_EEEERKNS_14FuzzingOptionsE, symObjAddr: 0x430, symBinAddr: 0x10000A7F8, symSize: 0x9D4 }
  - { offset: 0x4F9C6, size: 0x8, addend: 0x0, symName: __ZN6fuzzer7Command10removeFlagERKNSt3__112basic_stringIcNS1_11char_traitsIcEENS1_9allocatorIcEEEE, symObjAddr: 0xE04, symBinAddr: 0x10000B1CC, symSize: 0x21C }
  - { offset: 0x4FA49, size: 0x8, addend: 0x0, symName: __ZN6fuzzer18MinimizeCrashInputERKNSt3__16vectorINS0_12basic_stringIcNS0_11char_traitsIcEENS0_9allocatorIcEEEENS5_IS7_EEEERKNS_14FuzzingOptionsE, symObjAddr: 0x11D0, symBinAddr: 0x10000B598, symSize: 0xEE0 }
  - { offset: 0x5447F, size: 0x8, addend: 0x0, symName: __ZN6fuzzer7Command7addFlagERKNSt3__112basic_stringIcNS1_11char_traitsIcEENS1_9allocatorIcEEEES9_, symObjAddr: 0x20B0, symBinAddr: 0x10000C478, symSize: 0x1A8 }
  - { offset: 0x544A4, size: 0x8, addend: 0x0, symName: __ZN6fuzzerL26GetDedupTokenFromCmdOutputERKNSt3__112basic_stringIcNS0_11char_traitsIcEENS0_9allocatorIcEEEE, symObjAddr: 0x264C, symBinAddr: 0x10000C620, symSize: 0x1F8 }
  - { offset: 0x54AF5, size: 0x8, addend: 0x0, symName: __ZN6fuzzer30MinimizeCrashInputInternalStepEPNS_6FuzzerEPNS_11InputCorpusE, symObjAddr: 0x2844, symBinAddr: 0x10000C818, symSize: 0xFC }
  - { offset: 0x54B15, size: 0x8, addend: 0x0, symName: __ZN6fuzzer30MinimizeCrashInputInternalStepEPNS_6FuzzerEPNS_11InputCorpusE, symObjAddr: 0x2844, symBinAddr: 0x10000C818, symSize: 0xFC }
  - { offset: 0x54D22, size: 0x8, addend: 0x0, symName: __ZN6fuzzer5MergeEPNS_6FuzzerERNS_14FuzzingOptionsERKNSt3__16vectorINS4_12basic_stringIcNS4_11char_traitsIcEENS4_9allocatorIcEEEENS9_ISB_EEEESF_PKc, symObjAddr: 0x2940, symBinAddr: 0x10000C914, symSize: 0x30C }
  - { offset: 0x54D33, size: 0x8, addend: 0x0, symName: __ZN6fuzzer5MergeEPNS_6FuzzerERNS_14FuzzingOptionsERKNSt3__16vectorINS4_12basic_stringIcNS4_11char_traitsIcEENS4_9allocatorIcEEEENS9_ISB_EEEESF_PKc, symObjAddr: 0x2940, symBinAddr: 0x10000C914, symSize: 0x30C }
  - { offset: 0x55BC0, size: 0x8, addend: 0x0, symName: __ZN6fuzzer17AnalyzeDictionaryEPNS_6FuzzerERKNSt3__16vectorINS3_IhNS2_9allocatorIhEEEENS4_IS6_EEEERS8_, symObjAddr: 0x2C4C, symBinAddr: 0x10000CC20, symSize: 0x69C }
  - { offset: 0x55C2A, size: 0x8, addend: 0x0, symName: __ZN6fuzzer17AnalyzeDictionaryEPNS_6FuzzerERKNSt3__16vectorINS3_IhNS2_9allocatorIhEEEENS4_IS6_EEEERS8_, symObjAddr: 0x2C4C, symBinAddr: 0x10000CC20, symSize: 0x69C }
  - { offset: 0x5729E, size: 0x8, addend: 0x0, symName: '__ZNK6fuzzer7TracePC15CollectFeaturesIZNS_17AnalyzeDictionaryEPNS_6FuzzerERKNSt3__16vectorINS5_IhNS4_9allocatorIhEEEENS6_IS8_EEEERSA_E3$_0EEmT_', symObjAddr: 0x32E8, symBinAddr: 0x10000D2BC, symSize: 0x290 }
  - { offset: 0x57A68, size: 0x8, addend: 0x0, symName: '__ZN6fuzzer18ForEachNonZeroByteIZNKS_7TracePC15CollectFeaturesIZNS_17AnalyzeDictionaryEPNS_6FuzzerERKNSt3__16vectorINS6_IhNS5_9allocatorIhEEEENS7_IS9_EEEERSB_E3$_0EEmT_EUlmmhE_EEmPKhSJ_mSG_', symObjAddr: 0x8EFC, symBinAddr: 0x1000125F8, symSize: 0x3D8 }
  - { offset: 0x57F80, size: 0x8, addend: 0x0, symName: __ZNSt3__16vectorImNS_9allocatorImEEE9push_backB8nn200100ERKm, symObjAddr: 0x92D4, symBinAddr: 0x1000129D0, symSize: 0xF8 }
  - { offset: 0x57FB2, size: 0x8, addend: 0x0, symName: '__ZN6fuzzer18ForEachNonZeroByteIZNKS_7TracePC15CollectFeaturesIZNS_17AnalyzeDictionaryEPNS_6FuzzerERKNSt3__16vectorINS6_IhNS5_9allocatorIhEEEENS7_IS9_EEEERSB_E3$_1EEmT_EUlmmhE_EEmPKhSJ_mSG_', symObjAddr: 0x93E0, symBinAddr: 0x100012ADC, symSize: 0x3D8 }
  - { offset: 0x584CA, size: 0x8, addend: 0x0, symName: __ZNSt3__16vectorINS_12basic_stringIcNS_11char_traitsIcEENS_9allocatorIcEEEENS4_IS6_EEE16__init_with_sizeB8nn200100IPPcSB_EEvT_T0_m, symObjAddr: 0x97B8, symBinAddr: 0x100012EB4, symSize: 0x114 }
  - { offset: 0x584DE, size: 0x8, addend: 0x0, symName: __ZN6fuzzer14ParseSeedInutsEPKc, symObjAddr: 0x3808, symBinAddr: 0x10000D7DC, symSize: 0x49C }
  - { offset: 0x59A43, size: 0x8, addend: 0x0, symName: __ZNSt3__16vectorINS_12basic_stringIcNS_11char_traitsIcEENS_9allocatorIcEEEENS4_IS6_EEE9push_backB8nn200100EOS6_, symObjAddr: 0x3CA4, symBinAddr: 0x10000DC78, symSize: 0x140 }
  - { offset: 0x59CFD, size: 0x8, addend: 0x0, symName: __ZN6fuzzer12FuzzerDriverEPiPPPcPFiPKhmE, symObjAddr: 0x3E64, symBinAddr: 0x10000DE38, symSize: 0x1F64 }
  - { offset: 0x60135, size: 0x8, addend: 0x0, symName: __ZN6fuzzerL23ValidateDirectoryExistsERKNSt3__112basic_stringIcNS0_11char_traitsIcEENS0_9allocatorIcEEEEb, symObjAddr: 0x5DC8, symBinAddr: 0x10000FD9C, symSize: 0xBC }
  - { offset: 0x6018A, size: 0x8, addend: 0x0, symName: __ZN6fuzzerL23ValidateDirectoryExistsERKNSt3__112basic_stringIcNS0_11char_traitsIcEENS0_9allocatorIcEEEEb, symObjAddr: 0x5DC8, symBinAddr: 0x10000FD9C, symSize: 0xBC }
  - { offset: 0x60376, size: 0x8, addend: 0x0, symName: __ZN6fuzzerL11ReadCorporaERKNSt3__16vectorINS0_12basic_stringIcNS0_11char_traitsIcEENS0_9allocatorIcEEEENS5_IS7_EEEESB_, symObjAddr: 0x5E84, symBinAddr: 0x10000FE58, symSize: 0x188 }
  - { offset: 0x60401, size: 0x8, addend: 0x0, symName: __ZN6fuzzerL11ReadCorporaERKNSt3__16vectorINS0_12basic_stringIcNS0_11char_traitsIcEENS0_9allocatorIcEEEENS5_IS7_EEEESB_, symObjAddr: 0x5E84, symBinAddr: 0x10000FE58, symSize: 0x188 }
  - { offset: 0x60A7C, size: 0x8, addend: 0x0, symName: __ZN6fuzzerL11PulseThreadEv, symObjAddr: 0x6C2C, symBinAddr: 0x1000103C4, symSize: 0x40 }
  - { offset: 0x60B7D, size: 0x8, addend: 0x0, symName: __ZN6fuzzerL12WorkerThreadERKNS_7CommandEPNSt3__16atomicIjEEjPNS4_IbEE, symObjAddr: 0x6C6C, symBinAddr: 0x100010404, symSize: 0x2D0 }
  - { offset: 0x6190C, size: 0x8, addend: 0x0, symName: __ZN6fuzzerL9RssThreadEPNS_6FuzzerEm, symObjAddr: 0x757C, symBinAddr: 0x100010D14, symSize: 0x34 }
  - { offset: 0x7D4DA, size: 0x8, addend: 0x0, symName: __ZNSt3__111__introsortINS_17_ClassicAlgPolicyERNS_6__lessIvvEEPN6fuzzer9SizedFileELb0EEEvT1_S8_T0_NS_15iterator_traitsIS8_E15difference_typeEb, symObjAddr: 0x797C, symBinAddr: 0x100011078, symSize: 0x550 }
  - { offset: 0x7E469, size: 0x8, addend: 0x0, symName: __ZNSt3__111__sift_downB8nn200100INS_17_ClassicAlgPolicyERNS_6__lessIvvEEPN6fuzzer9SizedFileEEEvT1_OT0_NS_15iterator_traitsIS8_E15difference_typeES8_, symObjAddr: 0x8ADC, symBinAddr: 0x1000121D8, symSize: 0x16C }
  - { offset: 0x7E94B, size: 0x8, addend: 0x0, symName: __ZNSt3__131__partition_with_equals_on_leftB8nn200100INS_17_ClassicAlgPolicyEPN6fuzzer9SizedFileERNS_6__lessIvvEEEET0_S8_S8_T1_, symObjAddr: 0x84F0, symBinAddr: 0x100011BEC, symSize: 0x1BC }
  - { offset: 0x7F110, size: 0x8, addend: 0x0, symName: __ZNSt3__132__partition_with_equals_on_rightB8nn200100INS_17_ClassicAlgPolicyEPN6fuzzer9SizedFileERNS_6__lessIvvEEEENS_4pairIT0_bEES9_S9_T1_, symObjAddr: 0x86AC, symBinAddr: 0x100011DA8, symSize: 0x1C8 }
  - { offset: 0x7F8E0, size: 0x8, addend: 0x0, symName: __ZNSt3__127__insertion_sort_incompleteB8nn200100INS_17_ClassicAlgPolicyERNS_6__lessIvvEEPN6fuzzer9SizedFileEEEbT1_S8_T0_, symObjAddr: 0x8874, symBinAddr: 0x100011F70, symSize: 0x268 }
  - { offset: 0x84B97, size: 0x8, addend: 0x0, symName: __ZNSt3__19remove_ifB8nn200100INS_11__wrap_iterIPNS_12basic_stringIcNS_11char_traitsIcEENS_9allocatorIcEEEEEEZN6fuzzer7Command10removeFlagERKS7_EUlSD_E_EET_SF_SF_T0_, symObjAddr: 0x60D8, symBinAddr: 0x100010068, symSize: 0xFC }
  - { offset: 0x84EA7, size: 0x8, addend: 0x0, symName: __ZNSt3__16removeB8nn200100INS_11__wrap_iterIPNS_12basic_stringIcNS_11char_traitsIcEENS_9allocatorIcEEEEEES7_EET_SA_SA_RKT0_, symObjAddr: 0x6204, symBinAddr: 0x100010164, symSize: 0x150 }
  - { offset: 0x8B1FE, size: 0x8, addend: 0x0, symName: __ZNSt3__16removeB8nn200100INS_11__wrap_iterIPNS_12basic_stringIcNS_11char_traitsIcEENS_9allocatorIcEEEEEES7_EET_SA_SA_RKT0_, symObjAddr: 0x6204, symBinAddr: 0x100010164, symSize: 0x150 }
  - { offset: 0x8BB9A, size: 0x8, addend: 0x0, symName: __ZNSt3__114__thread_proxyB8nn200100INS_5tupleIJNS_10unique_ptrINS_15__thread_structENS_14default_deleteIS3_EEEEPFvvEEEEEEPvSA_, symObjAddr: 0x6F3C, symBinAddr: 0x1000106D4, symSize: 0x60 }
  - { offset: 0x8C0FB, size: 0x8, addend: 0x0, symName: __ZNSt3__114__thread_proxyB8nn200100INS_5tupleIJNS_10unique_ptrINS_15__thread_structENS_14default_deleteIS3_EEEEPFvRKN6fuzzer7CommandEPNS_6atomicIjEEjPNSB_IbEEENS_17reference_wrapperIS8_EESD_jSF_EEEEEPvSL_, symObjAddr: 0x7228, symBinAddr: 0x1000109C0, symSize: 0x6C }
  - { offset: 0x8C6A6, size: 0x8, addend: 0x0, symName: __ZNSt3__114__thread_proxyB8nn200100INS_5tupleIJNS_10unique_ptrINS_15__thread_structENS_14default_deleteIS3_EEEEPFvPN6fuzzer6FuzzerEmES9_mEEEEEPvSD_, symObjAddr: 0x75B0, symBinAddr: 0x100010D48, symSize: 0x64 }
  - { offset: 0x8CD31, size: 0x8, addend: 0x0, symName: __ZNSt3__17__sort3B8nn200100INS_17_ClassicAlgPolicyERNS_6__lessIvvEEPN6fuzzer9SizedFileETnNS_9enable_ifIXnt21__use_branchless_sortIT0_T1_EEiE4typeELi0EEEbSA_SA_SA_S9_, symObjAddr: 0x7ECC, symBinAddr: 0x1000115C8, symSize: 0x294 }
  - { offset: 0x8DA34, size: 0x8, addend: 0x0, symName: __ZNSt3__17__sort5B8nn200100INS_17_ClassicAlgPolicyERNS_6__lessIvvEEPN6fuzzer9SizedFileETnNS_9enable_ifIXnt21__use_branchless_sortIT0_T1_EEiE4typeELi0EEEvSA_SA_SA_SA_SA_S9_, symObjAddr: 0x82EC, symBinAddr: 0x1000119E8, symSize: 0x204 }
  - { offset: 0x8E700, size: 0x8, addend: 0x0, symName: __ZNSt3__17__sort4B8nn200100INS_17_ClassicAlgPolicyERNS_6__lessIvvEEPN6fuzzer9SizedFileETnNS_9enable_ifIXnt21__use_branchless_sortIT0_T1_EEiE4typeELi0EEEvSA_SA_SA_SA_S9_, symObjAddr: 0x8160, symBinAddr: 0x10001185C, symSize: 0x18C }
  - { offset: 0x8F0B5, size: 0x8, addend: 0x0, symName: __ZNSt3__110__pop_heapB8nn200100INS_17_ClassicAlgPolicyENS_6__lessIvvEEPN6fuzzer9SizedFileEEEvT1_S7_RT0_NS_15iterator_traitsIS7_E15difference_typeE, symObjAddr: 0x8C48, symBinAddr: 0x100012344, symSize: 0x258 }
  - { offset: 0x90DF8, size: 0x8, addend: 0x0, symName: __ZNSt3__19remove_ifB8nn200100INS_11__wrap_iterIPNS_12basic_stringIcNS_11char_traitsIcEENS_9allocatorIcEEEEEEZN6fuzzer7Command10removeFlagERKS7_EUlSD_E_EET_SF_SF_T0_, symObjAddr: 0x60D8, symBinAddr: 0x100010068, symSize: 0xFC }
  - { offset: 0x92D89, size: 0x8, addend: 0x0, symName: ___libfuzzer_is_present, symObjAddr: 0x0, symBinAddr: 0x10000A3C8, symSize: 0x4 }
  - { offset: 0x9318C, size: 0x8, addend: 0x0, symName: __ZN6fuzzerL11PulseThreadEv, symObjAddr: 0x6C2C, symBinAddr: 0x1000103C4, symSize: 0x40 }
  - { offset: 0x933F8, size: 0x8, addend: 0x0, symName: __ZNSt3__112basic_stringIcNS_11char_traitsIcEENS_9allocatorIcEEEC1B8nn200100ILi0EEEPKc, symObjAddr: 0x38C, symBinAddr: 0x10000A754, symSize: 0xA4 }
  - { offset: 0x93664, size: 0x8, addend: 0x0, symName: __ZN6fuzzer17CleanseCrashInputERKNSt3__16vectorINS0_12basic_stringIcNS0_11char_traitsIcEENS0_9allocatorIcEEEENS5_IS7_EEEERKNS_14FuzzingOptionsE, symObjAddr: 0x430, symBinAddr: 0x10000A7F8, symSize: 0x9D4 }
  - { offset: 0x93FA4, size: 0x8, addend: 0x0, symName: __ZNSt3__16vectorINS_12basic_stringIcNS_11char_traitsIcEENS_9allocatorIcEEEENS4_IS6_EEE24__emplace_back_slow_pathIJRKS6_EEEPS6_DpOT_, symObjAddr: 0x7824, symBinAddr: 0x100010F34, symSize: 0x130 }
  - { offset: 0x93FAF, size: 0x8, addend: 0x0, symName: __ZN6fuzzer7Command10removeFlagERKNSt3__112basic_stringIcNS1_11char_traitsIcEENS1_9allocatorIcEEEE, symObjAddr: 0xE04, symBinAddr: 0x10000B1CC, symSize: 0x21C }
  - { offset: 0x9488E, size: 0x8, addend: 0x0, symName: __ZN6fuzzer7Command14removeArgumentERKNSt3__112basic_stringIcNS1_11char_traitsIcEENS1_9allocatorIcEEEE, symObjAddr: 0x1020, symBinAddr: 0x10000B3E8, symSize: 0x1B0 }
  - { offset: 0x948C8, size: 0x8, addend: 0x0, symName: __ZN6fuzzer7Command14removeArgumentERKNSt3__112basic_stringIcNS1_11char_traitsIcEENS1_9allocatorIcEEEE, symObjAddr: 0x1020, symBinAddr: 0x10000B3E8, symSize: 0x1B0 }
  - { offset: 0x94ED4, size: 0x8, addend: 0x0, symName: __ZN6fuzzer18MinimizeCrashInputERKNSt3__16vectorINS0_12basic_stringIcNS0_11char_traitsIcEENS0_9allocatorIcEEEENS5_IS7_EEEERKNS_14FuzzingOptionsE, symObjAddr: 0x11D0, symBinAddr: 0x10000B598, symSize: 0xEE0 }
  - { offset: 0x954C8, size: 0x8, addend: 0x0, symName: __ZNSt3__16vectorINS_12basic_stringIcNS_11char_traitsIcEENS_9allocatorIcEEEENS4_IS6_EEE20__throw_out_of_rangeB8nn200100Ev, symObjAddr: 0x7968, symBinAddr: 0x100011064, symSize: 0x14 }
  - { offset: 0x954E0, size: 0x8, addend: 0x0, symName: __ZNSt3__111__introsortINS_17_ClassicAlgPolicyERNS_6__lessIvvEEPN6fuzzer9SizedFileELb0EEEvT1_S8_T0_NS_15iterator_traitsIS8_E15difference_typeEb, symObjAddr: 0x797C, symBinAddr: 0x100011078, symSize: 0x550 }
  - { offset: 0x95750, size: 0x8, addend: 0x0, symName: __ZN6fuzzer7Command7addFlagERKNSt3__112basic_stringIcNS1_11char_traitsIcEENS1_9allocatorIcEEEES9_, symObjAddr: 0x20B0, symBinAddr: 0x10000C478, symSize: 0x1A8 }
  - { offset: 0x966B3, size: 0x8, addend: 0x0, symName: __ZN6fuzzerL26GetDedupTokenFromCmdOutputERKNSt3__112basic_stringIcNS0_11char_traitsIcEENS0_9allocatorIcEEEE, symObjAddr: 0x264C, symBinAddr: 0x10000C620, symSize: 0x1F8 }
  - { offset: 0x96D73, size: 0x8, addend: 0x0, symName: __ZNSt3__16__treeIjNS_4lessIjEENS_9allocatorIjEEE7destroyEPNS_11__tree_nodeIjPvEE, symObjAddr: 0x8EA0, symBinAddr: 0x10001259C, symSize: 0x48 }
  - { offset: 0x9799F, size: 0x8, addend: 0x0, symName: '__ZNK6fuzzer7TracePC15CollectFeaturesIZNS_17AnalyzeDictionaryEPNS_6FuzzerERKNSt3__16vectorINS5_IhNS4_9allocatorIhEEEENS6_IS8_EEEERSA_E3$_0EEmT_', symObjAddr: 0x32E8, symBinAddr: 0x10000D2BC, symSize: 0x290 }
  - { offset: 0x9800F, size: 0x8, addend: 0x0, symName: '__ZNK6fuzzer7TracePC15CollectFeaturesIZNS_17AnalyzeDictionaryEPNS_6FuzzerERKNSt3__16vectorINS5_IhNS4_9allocatorIhEEEENS6_IS8_EEEERSA_E3$_1EEmT_', symObjAddr: 0x3578, symBinAddr: 0x10000D54C, symSize: 0x290 }
  - { offset: 0x98064, size: 0x8, addend: 0x0, symName: '__ZNK6fuzzer7TracePC15CollectFeaturesIZNS_17AnalyzeDictionaryEPNS_6FuzzerERKNSt3__16vectorINS5_IhNS4_9allocatorIhEEEENS6_IS8_EEEERSA_E3$_1EEmT_', symObjAddr: 0x3578, symBinAddr: 0x10000D54C, symSize: 0x290 }
  - { offset: 0x986D4, size: 0x8, addend: 0x0, symName: __ZN6fuzzer14ParseSeedInutsEPKc, symObjAddr: 0x3808, symBinAddr: 0x10000D7DC, symSize: 0x49C }
  - { offset: 0x98733, size: 0x8, addend: 0x0, symName: __ZNSt3__16vectorINS_12basic_stringIcNS_11char_traitsIcEENS_9allocatorIcEEEENS4_IS6_EEE20__throw_out_of_rangeB8nn200100Ev, symObjAddr: 0x7968, symBinAddr: 0x100011064, symSize: 0x14 }
  - { offset: 0x9873E, size: 0x8, addend: 0x0, symName: __ZNSt3__16vectorIiNS_9allocatorIiEEE20__throw_length_errorB8nn200100Ev, symObjAddr: 0x8EE8, symBinAddr: 0x1000125E4, symSize: 0x14 }
  - { offset: 0x98756, size: 0x8, addend: 0x0, symName: '__ZN6fuzzer18ForEachNonZeroByteIZNKS_7TracePC15CollectFeaturesIZNS_17AnalyzeDictionaryEPNS_6FuzzerERKNSt3__16vectorINS6_IhNS5_9allocatorIhEEEENS7_IS9_EEEERSB_E3$_0EEmT_EUlmmhE_EEmPKhSJ_mSG_', symObjAddr: 0x8EFC, symBinAddr: 0x1000125F8, symSize: 0x3D8 }
  - { offset: 0x98B53, size: 0x8, addend: 0x0, symName: __ZNSt3__16vectorImNS_9allocatorImEEE9push_backB8nn200100ERKm, symObjAddr: 0x92D4, symBinAddr: 0x1000129D0, symSize: 0xF8 }
  - { offset: 0x98F8E, size: 0x8, addend: 0x0, symName: __ZNSt3__16vectorImNS_9allocatorImEEE20__throw_length_errorB8nn200100Ev, symObjAddr: 0x93CC, symBinAddr: 0x100012AC8, symSize: 0x14 }
  - { offset: 0x98F99, size: 0x8, addend: 0x0, symName: __ZNSt3__16vectorImNS_9allocatorImEEE20__throw_length_errorB8nn200100Ev, symObjAddr: 0x93CC, symBinAddr: 0x100012AC8, symSize: 0x14 }
  - { offset: 0x98FB1, size: 0x8, addend: 0x0, symName: '__ZN6fuzzer18ForEachNonZeroByteIZNKS_7TracePC15CollectFeaturesIZNS_17AnalyzeDictionaryEPNS_6FuzzerERKNSt3__16vectorINS6_IhNS5_9allocatorIhEEEENS7_IS9_EEEERSB_E3$_1EEmT_EUlmmhE_EEmPKhSJ_mSG_', symObjAddr: 0x93E0, symBinAddr: 0x100012ADC, symSize: 0x3D8 }
  - { offset: 0x9939D, size: 0x8, addend: 0x0, symName: __ZNSt3__16vectorINS_12basic_stringIcNS_11char_traitsIcEENS_9allocatorIcEEEENS4_IS6_EEE9push_backB8nn200100EOS6_, symObjAddr: 0x3CA4, symBinAddr: 0x10000DC78, symSize: 0x140 }
  - { offset: 0x99881, size: 0x8, addend: 0x0, symName: __ZNSt3__16vectorINS_12basic_stringIcNS_11char_traitsIcEENS_9allocatorIcEEEENS4_IS6_EEED1B8nn200100Ev, symObjAddr: 0x3DE4, symBinAddr: 0x10000DDB8, symSize: 0x80 }
  - { offset: 0x999C8, size: 0x8, addend: 0x0, symName: __ZNSt3__16vectorINS_12basic_stringIcNS_11char_traitsIcEENS_9allocatorIcEEEENS4_IS6_EEED1B8nn200100Ev, symObjAddr: 0x3DE4, symBinAddr: 0x10000DDB8, symSize: 0x80 }
  - { offset: 0x9B49F, size: 0x8, addend: 0x0, symName: __ZNSt3__16vectorINS_12basic_stringIcNS_11char_traitsIcEENS_9allocatorIcEEEENS4_IS6_EEE16__init_with_sizeB8nn200100IPPcSB_EEvT_T0_m, symObjAddr: 0x97B8, symBinAddr: 0x100012EB4, symSize: 0x114 }
  - { offset: 0x9B98F, size: 0x8, addend: 0x0, symName: __ZNSt3__16vectorINS_12basic_stringIcNS_11char_traitsIcEENS_9allocatorIcEEEENS4_IS6_EEE24__emplace_back_slow_pathIJRKS6_EEEPS6_DpOT_, symObjAddr: 0x7824, symBinAddr: 0x100010F34, symSize: 0x130 }
  - { offset: 0x9BE0B, size: 0x8, addend: 0x0, symName: __ZNSt3__16vectorINS_6threadENS_9allocatorIS1_EEE8__appendEm, symObjAddr: 0x6F9C, symBinAddr: 0x100010734, symSize: 0x278 }
  - { offset: 0x9C3F5, size: 0x8, addend: 0x0, symName: __ZNSt3__16vectorINS_6threadENS_9allocatorIS1_EEE20__throw_length_errorB8nn200100Ev, symObjAddr: 0x7214, symBinAddr: 0x1000109AC, symSize: 0x14 }
  - { offset: 0x9C400, size: 0x8, addend: 0x0, symName: __ZN6fuzzer14FuzzingOptionsD2Ev, symObjAddr: 0x7614, symBinAddr: 0x100010DAC, symSize: 0x188 }
  - { offset: 0x9D005, size: 0x8, addend: 0x0, symName: __ZN6fuzzer11InputCorpusC2ERKNSt3__112basic_stringIcNS1_11char_traitsIcEENS1_9allocatorIcEEEENS_15EntropicOptionsE, symObjAddr: 0x73EC, symBinAddr: 0x100010B84, symSize: 0x190 }
  - { offset: 0x9D8D0, size: 0x8, addend: 0x0, symName: __ZNSt3__16vectorINS0_IhNS_9allocatorIhEEEENS1_IS3_EEED1B8nn200100Ev, symObjAddr: 0x600C, symBinAddr: 0x10000FFE0, symSize: 0x84 }
  - { offset: 0x9DD8E, size: 0x8, addend: 0x0, symName: __ZNSt3__16vectorIN6fuzzer9SizedFileENS_9allocatorIS2_EEE24__emplace_back_slow_pathIJS2_EEEPS2_DpOT_, symObjAddr: 0x7294, symBinAddr: 0x100010A2C, symSize: 0x144 }
  - { offset: 0x9E472, size: 0x8, addend: 0x0, symName: __ZNSt3__16vectorIN6fuzzer9SizedFileENS_9allocatorIS2_EEE20__throw_length_errorB8nn200100Ev, symObjAddr: 0x73D8, symBinAddr: 0x100010B70, symSize: 0x14 }
  - { offset: 0x9E48A, size: 0x8, addend: 0x0, symName: _LLVMFuzzerRunDriver, symObjAddr: 0x6090, symBinAddr: 0x100010064, symSize: 0x4 }
  - { offset: 0x9E4D6, size: 0x8, addend: 0x0, symName: _LLVMFuzzerRunDriver, symObjAddr: 0x6090, symBinAddr: 0x100010064, symSize: 0x4 }
  - { offset: 0x9EBA3, size: 0x8, addend: 0x0, symName: __ZN6fuzzer7CommandC2ERKS0_, symObjAddr: 0x67C0, symBinAddr: 0x1000102B4, symSize: 0x110 }
  - { offset: 0x9ECA6, size: 0x8, addend: 0x0, symName: __ZN6fuzzer7CommandC2ERKS0_, symObjAddr: 0x67C0, symBinAddr: 0x1000102B4, symSize: 0x110 }
  - { offset: 0x9FB09, size: 0x8, addend: 0x0, symName: __ZNSt3__16vectorINS_6threadENS_9allocatorIS1_EEE20__throw_length_errorB8nn200100Ev, symObjAddr: 0x7214, symBinAddr: 0x1000109AC, symSize: 0x14 }
  - { offset: 0x9FB21, size: 0x8, addend: 0x0, symName: __ZNSt3__114__thread_proxyB8nn200100INS_5tupleIJNS_10unique_ptrINS_15__thread_structENS_14default_deleteIS3_EEEEPFvRKN6fuzzer7CommandEPNS_6atomicIjEEjPNSB_IbEEENS_17reference_wrapperIS8_EESD_jSF_EEEEEPvSL_, symObjAddr: 0x7228, symBinAddr: 0x1000109C0, symSize: 0x6C }
  - { offset: 0x9FD9E, size: 0x8, addend: 0x0, symName: __ZNSt3__16vectorIN6fuzzer9SizedFileENS_9allocatorIS2_EEE20__throw_length_errorB8nn200100Ev, symObjAddr: 0x73D8, symBinAddr: 0x100010B70, symSize: 0x14 }
  - { offset: 0x9FDB6, size: 0x8, addend: 0x0, symName: __ZN6fuzzer11InputCorpusC2ERKNSt3__112basic_stringIcNS1_11char_traitsIcEENS1_9allocatorIcEEEENS_15EntropicOptionsE, symObjAddr: 0x73EC, symBinAddr: 0x100010B84, symSize: 0x190 }
  - { offset: 0xA248E, size: 0x8, addend: 0x0, symName: __ZN6fuzzer17ExternalFunctionsC2Ev, symObjAddr: 0x0, symBinAddr: 0x100012FE4, symSize: 0x2F4 }
  - { offset: 0xA2A6A, size: 0x8, addend: 0x0, symName: __ZN6fuzzer17ExternalFunctionsC2Ev, symObjAddr: 0x0, symBinAddr: 0x100012FE4, symSize: 0x2F4 }
  - { offset: 0xA30F1, size: 0x8, addend: 0x0, symName: __ZN6fuzzer17ExternalFunctionsC1Ev, symObjAddr: 0x2F4, symBinAddr: 0x1000132D8, symSize: 0x4 }
  - { offset: 0xA311F, size: 0x8, addend: 0x0, symName: __ZN6fuzzer17ExternalFunctionsC1Ev, symObjAddr: 0x2F4, symBinAddr: 0x1000132D8, symSize: 0x4 }
  - { offset: 0xA5B28, size: 0x8, addend: 0x0, symName: __ZN6fuzzer18ExtraCountersBeginEv, symObjAddr: 0x0, symBinAddr: 0x1000132DC, symSize: 0x8 }
  - { offset: 0xA5B3B, size: 0x8, addend: 0x0, symName: __ZN6fuzzer18ExtraCountersBeginEv, symObjAddr: 0x0, symBinAddr: 0x1000132DC, symSize: 0x8 }
  - { offset: 0xA5B59, size: 0x8, addend: 0x0, symName: __ZN6fuzzer16ExtraCountersEndEv, symObjAddr: 0x8, symBinAddr: 0x1000132E4, symSize: 0x8 }
  - { offset: 0xA5B77, size: 0x8, addend: 0x0, symName: __ZN6fuzzer18ClearExtraCountersEv, symObjAddr: 0x10, symBinAddr: 0x1000132EC, symSize: 0x4 }
  - { offset: 0xA5CD2, size: 0x8, addend: 0x0, symName: __ZN6fuzzer12WorkerThreadEPNS_8JobQueueES1_, symObjAddr: 0x0, symBinAddr: 0x1000132F0, symSize: 0xC4 }
  - { offset: 0xB6AB3, size: 0x8, addend: 0x0, symName: __ZNSt3__1rsB8nn200100IcNS_11char_traitsIcEENS_9allocatorIcEEEERNS_13basic_istreamIT_T0_EES9_RNS_12basic_stringIS6_S7_T1_EE, symObjAddr: 0x6FC8, symBinAddr: 0x100018D08, symSize: 0x1D0 }
  - { offset: 0xC2B85, size: 0x8, addend: 0x0, symName: __ZNSt3__127__tree_balance_after_insertB8nn200100IPNS_16__tree_node_baseIPvEEEEvT_S5_, symObjAddr: 0x611C, symBinAddr: 0x1000186AC, symSize: 0x1D4 }
  - { offset: 0xC5681, size: 0x8, addend: 0x0, symName: __ZNK6fuzzer7Command12getFlagValueERKNSt3__112basic_stringIcNS1_11char_traitsIcEENS1_9allocatorIcEEEE, symObjAddr: 0x6B40, symBinAddr: 0x100018880, symSize: 0x288 }
  - { offset: 0xC82C4, size: 0x8, addend: 0x0, symName: __ZNSt3__114__thread_proxyB8nn200100INS_5tupleIJNS_10unique_ptrINS_15__thread_structENS_14default_deleteIS3_EEEEPFvPN6fuzzer8JobQueueES9_ES9_S9_EEEEEPvSD_, symObjAddr: 0x8CD8, symBinAddr: 0x100019484, symSize: 0x64 }
  - { offset: 0xC982B, size: 0x8, addend: 0x0, symName: __ZN6fuzzer12WorkerThreadEPNS_8JobQueueES1_, symObjAddr: 0x0, symBinAddr: 0x1000132F0, symSize: 0xC4 }
  - { offset: 0xC9C0A, size: 0x8, addend: 0x0, symName: __ZN6fuzzer12FuzzWithForkERNS_6RandomERKNS_14FuzzingOptionsERKNSt3__16vectorINS5_12basic_stringIcNS5_11char_traitsIcEENS5_9allocatorIcEEEENSA_ISC_EEEESG_i, symObjAddr: 0x1A4, symBinAddr: 0x100013494, symSize: 0x1838 }
  - { offset: 0xD036E, size: 0x8, addend: 0x0, symName: __ZNSt3__13setIjNS_4lessIjEENS_9allocatorIjEEE6insertB8nn200100INS_21__tree_const_iteratorIjPNS_11__tree_nodeIjPvEElEEEEvT_SD_, symObjAddr: 0x19DC, symBinAddr: 0x100014CCC, symSize: 0x104 }
  - { offset: 0xD1B4D, size: 0x8, addend: 0x0, symName: __ZN6fuzzer8JobQueue3PopEv, symObjAddr: 0xC4, symBinAddr: 0x1000133B4, symSize: 0xE0 }
  - { offset: 0xD1E51, size: 0x8, addend: 0x0, symName: __ZNSt3__15dequeIPN6fuzzer7FuzzJobENS_9allocatorIS3_EEE19__add_back_capacityEv, symObjAddr: 0x436C, symBinAddr: 0x100017524, symSize: 0x2F4 }
  - { offset: 0xD2A04, size: 0x8, addend: 0x0, symName: __ZNSt3__114__split_bufferIPPN6fuzzer7FuzzJobENS_9allocatorIS4_EEE12emplace_backIJRS4_EEEvDpOT_, symObjAddr: 0x4660, symBinAddr: 0x100017818, symSize: 0x180 }
  - { offset: 0xD5083, size: 0x8, addend: 0x0, symName: __ZNSt3__16vectorINS_12basic_stringIcNS_11char_traitsIcEENS_9allocatorIcEEEENS4_IS6_EEE18__assign_with_sizeB8nn200100IPS6_SA_EEvT_T0_l, symObjAddr: 0x7330, symBinAddr: 0x100019048, symSize: 0x28C }
  - { offset: 0xD5D71, size: 0x8, addend: 0x0, symName: __ZNSt3__13setIjNS_4lessIjEENS_9allocatorIjEEE6insertB8nn200100INS_21__tree_const_iteratorIjPNS_11__tree_nodeIjPvEElEEEEvT_SD_, symObjAddr: 0x19DC, symBinAddr: 0x100014CCC, symSize: 0x104 }
  - { offset: 0xD5DB8, size: 0x8, addend: 0x0, symName: __ZNSt3__13setIjNS_4lessIjEENS_9allocatorIjEEE6insertB8nn200100INS_21__tree_const_iteratorIjPNS_11__tree_nodeIjPvEElEEEEvT_SD_, symObjAddr: 0x19DC, symBinAddr: 0x100014CCC, symSize: 0x104 }
  - { offset: 0xD617E, size: 0x8, addend: 0x0, symName: __ZN6fuzzer9GlobalEnv12CreateNewJobEm, symObjAddr: 0x1AE0, symBinAddr: 0x100014DD0, symSize: 0x16C8 }
  - { offset: 0xDD3E3, size: 0x8, addend: 0x0, symName: '__ZZN6fuzzer12FuzzWithForkERNS_6RandomERKNS_14FuzzingOptionsERKNSt3__16vectorINS5_12basic_stringIcNS5_11char_traitsIcEENS5_9allocatorIcEEEENSA_ISC_EEEESG_iENK3$_0clEv', symObjAddr: 0x31A8, symBinAddr: 0x100016498, symSize: 0x19C }
  - { offset: 0xDD3EE, size: 0x8, addend: 0x0, symName: __ZN6fuzzer7FuzzJobD2Ev, symObjAddr: 0x8D50, symBinAddr: 0x1000194E8, symSize: 0x17C }
  - { offset: 0xDDDBA, size: 0x8, addend: 0x0, symName: __ZN6fuzzer9GlobalEnv14RunOneMergeJobEPNS_7FuzzJobE, symObjAddr: 0x3344, symBinAddr: 0x100016634, symSize: 0xEAC }
  - { offset: 0xE1A67, size: 0x8, addend: 0x0, symName: '__ZZN6fuzzer12FuzzWithForkERNS_6RandomERKNS_14FuzzingOptionsERKNSt3__16vectorINS5_12basic_stringIcNS5_11char_traitsIcEENS5_9allocatorIcEEEENSA_ISC_EEEESG_iENK3$_0clEv', symObjAddr: 0x31A8, symBinAddr: 0x100016498, symSize: 0x19C }
  - { offset: 0xE22BC, size: 0x8, addend: 0x0, symName: __ZNK6fuzzer9GlobalEnv26secondsSinceProcessStartUpEv, symObjAddr: 0x4328, symBinAddr: 0x1000174E0, symSize: 0x44 }
  - { offset: 0xE2373, size: 0x8, addend: 0x0, symName: __ZNSt3__16vectorINS_12basic_stringIcNS_11char_traitsIcEENS_9allocatorIcEEEENS4_IS6_EEE18__assign_with_sizeB8nn200100IPS6_SA_EEvT_T0_l, symObjAddr: 0x7330, symBinAddr: 0x100019048, symSize: 0x28C }
  - { offset: 0xE2388, size: 0x8, addend: 0x0, symName: __ZN6fuzzer7FuzzJobD2Ev, symObjAddr: 0x8D50, symBinAddr: 0x1000194E8, symSize: 0x17C }
  - { offset: 0xE2640, size: 0x8, addend: 0x0, symName: __ZNSt3__16__treeIjNS_4lessIjEENS_9allocatorIjEEE12__find_equalIjEERPNS_16__tree_node_baseIPvEENS_21__tree_const_iteratorIjPNS_11__tree_nodeIjS8_EElEERPNS_15__tree_end_nodeISA_EESB_RKT_, symObjAddr: 0x8B28, symBinAddr: 0x1000192D4, symSize: 0x1B0 }
  - { offset: 0xE26A6, size: 0x8, addend: 0x0, symName: __ZNSt3__16__treeIjNS_4lessIjEENS_9allocatorIjEEE12__find_equalIjEERPNS_16__tree_node_baseIPvEENS_21__tree_const_iteratorIjPNS_11__tree_nodeIjS8_EElEERPNS_15__tree_end_nodeISA_EESB_RKT_, symObjAddr: 0x8B28, symBinAddr: 0x1000192D4, symSize: 0x1B0 }
  - { offset: 0xE26C2, size: 0x8, addend: 0x0, symName: __ZNSt3__16__treeIjNS_4lessIjEENS_9allocatorIjEEE12__find_equalIjEERPNS_16__tree_node_baseIPvEENS_21__tree_const_iteratorIjPNS_11__tree_nodeIjS8_EElEERPNS_15__tree_end_nodeISA_EESB_RKT_, symObjAddr: 0x8B28, symBinAddr: 0x1000192D4, symSize: 0x1B0 }
  - { offset: 0xE3D8F, size: 0x8, addend: 0x0, symName: __ZN6fuzzer9GlobalEnv8StopFileEv, symObjAddr: 0x5074, symBinAddr: 0x100017CA4, symSize: 0xF0 }
  - { offset: 0xE3D9A, size: 0x8, addend: 0x0, symName: __ZN6fuzzer9GlobalEnv8StopFileEv, symObjAddr: 0x5074, symBinAddr: 0x100017CA4, symSize: 0xF0 }
  - { offset: 0xE414A, size: 0x8, addend: 0x0, symName: __ZNK6fuzzer7Command7hasFlagERKNSt3__112basic_stringIcNS1_11char_traitsIcEENS1_9allocatorIcEEEE, symObjAddr: 0x5164, symBinAddr: 0x100017D94, symSize: 0x19C }
  - { offset: 0xE4155, size: 0x8, addend: 0x0, symName: __ZNK6fuzzer7Command7hasFlagERKNSt3__112basic_stringIcNS1_11char_traitsIcEENS1_9allocatorIcEEEE, symObjAddr: 0x5164, symBinAddr: 0x100017D94, symSize: 0x19C }
  - { offset: 0xE4732, size: 0x8, addend: 0x0, symName: __ZN6fuzzer9GlobalEnv10CollectDFTERKNSt3__112basic_stringIcNS1_11char_traitsIcEENS1_9allocatorIcEEEE, symObjAddr: 0x5300, symBinAddr: 0x100017F30, symSize: 0x570 }
  - { offset: 0xE473D, size: 0x8, addend: 0x0, symName: __ZN6fuzzer9GlobalEnv10CollectDFTERKNSt3__112basic_stringIcNS1_11char_traitsIcEENS1_9allocatorIcEEEE, symObjAddr: 0x5300, symBinAddr: 0x100017F30, symSize: 0x570 }
  - { offset: 0xE7B07, size: 0x8, addend: 0x0, symName: __ZNSt3__16vectorIN6fuzzer9SizedFileENS_9allocatorIS2_EEE24__emplace_back_slow_pathIJRKS2_EEEPS2_DpOT_, symObjAddr: 0x7198, symBinAddr: 0x100018ED8, symSize: 0x170 }
  - { offset: 0xE823D, size: 0x8, addend: 0x0, symName: __ZNK6fuzzer7Command12getFlagValueERKNSt3__112basic_stringIcNS1_11char_traitsIcEENS1_9allocatorIcEEEE, symObjAddr: 0x6B40, symBinAddr: 0x100018880, symSize: 0x288 }
  - { offset: 0xE8CA5, size: 0x8, addend: 0x0, symName: __ZNSt3__16vectorImNS_9allocatorImEEE6insertENS_11__wrap_iterIPKmEERS5_, symObjAddr: 0x6DC8, symBinAddr: 0x100018B08, symSize: 0x200 }
  - { offset: 0xE8CB0, size: 0x8, addend: 0x0, symName: __ZNSt3__16vectorImNS_9allocatorImEEE6insertENS_11__wrap_iterIPKmEERS5_, symObjAddr: 0x6DC8, symBinAddr: 0x100018B08, symSize: 0x200 }
  - { offset: 0xE94F6, size: 0x8, addend: 0x0, symName: __ZNSt3__1rsB8nn200100IcNS_11char_traitsIcEENS_9allocatorIcEEEERNS_13basic_istreamIT_T0_EES9_RNS_12basic_stringIS6_S7_T1_EE, symObjAddr: 0x6FC8, symBinAddr: 0x100018D08, symSize: 0x1D0 }
  - { offset: 0xE99B7, size: 0x8, addend: 0x0, symName: __ZNSt3__114__split_bufferIPPN6fuzzer7FuzzJobENS_9allocatorIS4_EEE12emplace_backIJRS4_EEEvDpOT_, symObjAddr: 0x4660, symBinAddr: 0x100017818, symSize: 0x180 }
  - { offset: 0xE9E9D, size: 0x8, addend: 0x0, symName: __ZNSt3__114__split_bufferIPPN6fuzzer7FuzzJobENS_9allocatorIS4_EEE12emplace_backIJS4_EEEvDpOT_, symObjAddr: 0x47E0, symBinAddr: 0x100017998, symSize: 0x180 }
  - { offset: 0xE9EB5, size: 0x8, addend: 0x0, symName: __ZNSt3__114__split_bufferIPPN6fuzzer7FuzzJobENS_9allocatorIS4_EEE12emplace_backIJS4_EEEvDpOT_, symObjAddr: 0x47E0, symBinAddr: 0x100017998, symSize: 0x180 }
  - { offset: 0xEA39B, size: 0x8, addend: 0x0, symName: __ZNSt3__114__split_bufferIPPN6fuzzer7FuzzJobENS_9allocatorIS4_EEE13emplace_frontIJS4_EEEvDpOT_, symObjAddr: 0x4960, symBinAddr: 0x100017B18, symSize: 0x18C }
  - { offset: 0xEA3B3, size: 0x8, addend: 0x0, symName: __ZNSt3__114__split_bufferIPPN6fuzzer7FuzzJobENS_9allocatorIS4_EEE13emplace_frontIJS4_EEEvDpOT_, symObjAddr: 0x4960, symBinAddr: 0x100017B18, symSize: 0x18C }
  - { offset: 0xEAA85, size: 0x8, addend: 0x0, symName: __ZNSt3__16__treeINS_12basic_stringIcNS_11char_traitsIcEENS_9allocatorIcEEEENS_4lessIS6_EENS4_IS6_EEE25__emplace_unique_key_argsIS6_JRKS6_EEENS_4pairINS_15__tree_iteratorIS6_PNS_11__tree_nodeIS6_PvEElEEbEERKT_DpOT0_, symObjAddr: 0x5F10, symBinAddr: 0x1000184A0, symSize: 0xE0 }
  - { offset: 0xEB1AE, size: 0x8, addend: 0x0, symName: __ZNSt3__16__treeINS_12basic_stringIcNS_11char_traitsIcEENS_9allocatorIcEEEENS_4lessIS6_EENS4_IS6_EEE12__find_equalIS6_EERPNS_16__tree_node_baseIPvEERPNS_15__tree_end_nodeISF_EERKT_, symObjAddr: 0x5FF0, symBinAddr: 0x100018580, symSize: 0x12C }
  - { offset: 0xEE911, size: 0x8, addend: 0x0, symName: __ZN6fuzzerL10OutputFileE, symObjAddr: 0x61178, symBinAddr: 0x100077FB8, symSize: 0x0 }
  - { offset: 0xEE984, size: 0x8, addend: 0x0, symName: __ZN6fuzzer13GetOutputFileEv, symObjAddr: 0x0, symBinAddr: 0x100019664, symSize: 0xC }
  - { offset: 0xEE9A2, size: 0x8, addend: 0x0, symName: __ZN6fuzzer13SetOutputFileEP7__sFILE, symObjAddr: 0xC, symBinAddr: 0x100019670, symSize: 0xC }
  - { offset: 0xEE9CB, size: 0x8, addend: 0x0, symName: __ZN6fuzzer8GetEpochERKNSt3__112basic_stringIcNS0_11char_traitsIcEENS0_9allocatorIcEEEE, symObjAddr: 0x18, symBinAddr: 0x10001967C, symSize: 0x54 }
  - { offset: 0xEEA79, size: 0x8, addend: 0x0, symName: __ZN6fuzzer12FileToVectorERKNSt3__112basic_stringIcNS0_11char_traitsIcEENS0_9allocatorIcEEEEmb, symObjAddr: 0x6C, symBinAddr: 0x1000196D0, symSize: 0x2BC }
  - { offset: 0xEEF4D, size: 0x8, addend: 0x0, symName: __ZN6fuzzer6PrintfEPKcz, symObjAddr: 0x328, symBinAddr: 0x10001998C, symSize: 0x44 }
  - { offset: 0xEEF5E, size: 0x8, addend: 0x0, symName: __ZN6fuzzer6PrintfEPKcz, symObjAddr: 0x328, symBinAddr: 0x10001998C, symSize: 0x44 }
  - { offset: 0xEEFC2, size: 0x8, addend: 0x0, symName: __ZN6fuzzer12FileToStringERKNSt3__112basic_stringIcNS0_11char_traitsIcEENS0_9allocatorIcEEEE, symObjAddr: 0x36C, symBinAddr: 0x1000199D0, symSize: 0x1E4 }
  - { offset: 0xEF3A8, size: 0x8, addend: 0x0, symName: __ZN6fuzzer13CopyFileToErrERKNSt3__112basic_stringIcNS0_11char_traitsIcEENS0_9allocatorIcEEEE, symObjAddr: 0x550, symBinAddr: 0x100019BB4, symSize: 0x78 }
  - { offset: 0xEF5B8, size: 0x8, addend: 0x0, symName: __ZN6fuzzer4PutsEPKc, symObjAddr: 0x5C8, symBinAddr: 0x100019C2C, symSize: 0x28 }
  - { offset: 0xEF633, size: 0x8, addend: 0x0, symName: __ZN6fuzzer11WriteToFileERKNSt3__16vectorIhNS0_9allocatorIhEEEERKNS0_12basic_stringIcNS0_11char_traitsIcEENS2_IcEEEE, symObjAddr: 0x5F0, symBinAddr: 0x100019C54, symSize: 0x70 }
  - { offset: 0xEF77C, size: 0x8, addend: 0x0, symName: __ZN6fuzzer11WriteToFileEPKhmRKNSt3__112basic_stringIcNS2_11char_traitsIcEENS2_9allocatorIcEEEE, symObjAddr: 0x660, symBinAddr: 0x100019CC4, symSize: 0x74 }
  - { offset: 0xEF869, size: 0x8, addend: 0x0, symName: __ZN6fuzzer11WriteToFileERKNSt3__112basic_stringIcNS0_11char_traitsIcEENS0_9allocatorIcEEEES8_, symObjAddr: 0x6D4, symBinAddr: 0x100019D38, symSize: 0x8C }
  - { offset: 0xEFA2E, size: 0x8, addend: 0x0, symName: __ZN6fuzzer12AppendToFileERKNSt3__112basic_stringIcNS0_11char_traitsIcEENS0_9allocatorIcEEEES8_, symObjAddr: 0x760, symBinAddr: 0x100019DC4, symSize: 0x8C }
  - { offset: 0xEFBA3, size: 0x8, addend: 0x0, symName: __ZN6fuzzer12AppendToFileEPKhmRKNSt3__112basic_stringIcNS2_11char_traitsIcEENS2_9allocatorIcEEEE, symObjAddr: 0x7EC, symBinAddr: 0x100019E50, symSize: 0x74 }
  - { offset: 0xEFCB8, size: 0x8, addend: 0x0, symName: __ZN6fuzzer22ReadDirToVectorOfUnitsEPKcPNSt3__16vectorINS3_IhNS2_9allocatorIhEEEENS4_IS6_EEEEPlmbPNS3_INS2_12basic_stringIcNS2_11char_traitsIcEENS4_IcEEEENS4_ISF_EEEE, symObjAddr: 0x860, symBinAddr: 0x100019EC4, symSize: 0x37C }
  - { offset: 0xF0C9F, size: 0x8, addend: 0x0, symName: __ZN6fuzzer20GetSizedFilesFromDirERKNSt3__112basic_stringIcNS0_11char_traitsIcEENS0_9allocatorIcEEEEPNS0_6vectorINS_9SizedFileENS4_ISA_EEEE, symObjAddr: 0xBDC, symBinAddr: 0x10001A240, symSize: 0x174 }
  - { offset: 0xF0CCA, size: 0x8, addend: 0x0, symName: __ZN6fuzzer20GetSizedFilesFromDirERKNSt3__112basic_stringIcNS0_11char_traitsIcEENS0_9allocatorIcEEEEPNS0_6vectorINS_9SizedFileENS4_ISA_EEEE, symObjAddr: 0xBDC, symBinAddr: 0x10001A240, symSize: 0x174 }
  - { offset: 0xF1426, size: 0x8, addend: 0x0, symName: __ZN6fuzzer11DirPlusFileERKNSt3__112basic_stringIcNS0_11char_traitsIcEENS0_9allocatorIcEEEES8_, symObjAddr: 0xD50, symBinAddr: 0x10001A3B4, symSize: 0x138 }
  - { offset: 0xF1A1A, size: 0x8, addend: 0x0, symName: __ZN6fuzzer17DupAndCloseStderrEv, symObjAddr: 0xE88, symBinAddr: 0x10001A4EC, symSize: 0x70 }
  - { offset: 0xF1A34, size: 0x8, addend: 0x0, symName: __ZN6fuzzer17DupAndCloseStderrEv, symObjAddr: 0xE88, symBinAddr: 0x10001A4EC, symSize: 0x70 }
  - { offset: 0xF1B26, size: 0x8, addend: 0x0, symName: __ZN6fuzzer11CloseStdoutEv, symObjAddr: 0xEF8, symBinAddr: 0x10001A55C, symSize: 0x8 }
  - { offset: 0xF1B55, size: 0x8, addend: 0x0, symName: __ZN6fuzzer7VPrintfEbPKcz, symObjAddr: 0xF00, symBinAddr: 0x10001A564, symSize: 0x44 }
  - { offset: 0xF1BC1, size: 0x8, addend: 0x0, symName: __ZN6fuzzer14MkDirRecursiveERKNSt3__112basic_stringIcNS0_11char_traitsIcEENS0_9allocatorIcEEEE, symObjAddr: 0xF44, symBinAddr: 0x10001A5A8, symSize: 0x60 }
  - { offset: 0xF1C76, size: 0x8, addend: 0x0, symName: __ZN6fuzzerL19MkDirRecursiveInnerERKNSt3__112basic_stringIcNS0_11char_traitsIcEENS0_9allocatorIcEEEE, symObjAddr: 0xFA4, symBinAddr: 0x10001A608, symSize: 0xFC }
  - { offset: 0xF1F7A, size: 0x8, addend: 0x0, symName: __ZN6fuzzer14RmDirRecursiveERKNSt3__112basic_stringIcNS0_11char_traitsIcEENS0_9allocatorIcEEEE, symObjAddr: 0x10A0, symBinAddr: 0x10001A704, symSize: 0x1C }
  - { offset: 0xF1FAB, size: 0x8, addend: 0x0, symName: __ZN6fuzzer14RmDirRecursiveERKNSt3__112basic_stringIcNS0_11char_traitsIcEENS0_9allocatorIcEEEE, symObjAddr: 0x10A0, symBinAddr: 0x10001A704, symSize: 0x1C }
  - { offset: 0xF2073, size: 0x8, addend: 0x0, symName: __ZN6fuzzer8TempPathEPKcS1_, symObjAddr: 0x10BC, symBinAddr: 0x10001A720, symSize: 0x22C }
  - { offset: 0x103833, size: 0x8, addend: 0x0, symName: '__ZZN6fuzzer14RmDirRecursiveERKNSt3__112basic_stringIcNS0_11char_traitsIcEENS0_9allocatorIcEEEEEN3$_08__invokeES8_', symObjAddr: 0x1318, symBinAddr: 0x10001A94C, symSize: 0x4 }
  - { offset: 0x10643C, size: 0x8, addend: 0x0, symName: __ZNSt3__16vectorINS0_IhNS_9allocatorIhEEEENS1_IS3_EEE24__emplace_back_slow_pathIJRKS3_EEEPS3_DpOT_, symObjAddr: 0x1404, symBinAddr: 0x10001A958, symSize: 0x138 }
  - { offset: 0x106AD8, size: 0x8, addend: 0x0, symName: __ZNSt3__16vectorINS0_IhNS_9allocatorIhEEEENS1_IS3_EEE20__throw_length_errorB8nn200100Ev, symObjAddr: 0x153C, symBinAddr: 0x10001AA90, symSize: 0x14 }
  - { offset: 0x106EEA, size: 0x8, addend: 0x0, symName: __ZNSt3__16vectorINS0_IhNS_9allocatorIhEEEENS1_IS3_EEE24__emplace_back_slow_pathIJRKS3_EEEPS3_DpOT_, symObjAddr: 0x1404, symBinAddr: 0x10001A958, symSize: 0x138 }
  - { offset: 0x10779D, size: 0x8, addend: 0x0, symName: '__ZZN6fuzzer14RmDirRecursiveERKNSt3__112basic_stringIcNS0_11char_traitsIcEENS0_9allocatorIcEEEEEN3$_08__invokeES8_', symObjAddr: 0x1318, symBinAddr: 0x10001A94C, symSize: 0x4 }
  - { offset: 0x1077F4, size: 0x8, addend: 0x0, symName: '__ZZN6fuzzer14RmDirRecursiveERKNSt3__112basic_stringIcNS0_11char_traitsIcEENS0_9allocatorIcEEEEEN3$_18__invokeES8_', symObjAddr: 0x131C, symBinAddr: 0x10001A950, symSize: 0x4 }
  - { offset: 0x10781D, size: 0x8, addend: 0x0, symName: '__ZZN6fuzzer14RmDirRecursiveERKNSt3__112basic_stringIcNS0_11char_traitsIcEENS0_9allocatorIcEEEEEN3$_18__invokeES8_', symObjAddr: 0x131C, symBinAddr: 0x10001A950, symSize: 0x4 }
  - { offset: 0x10783A, size: 0x8, addend: 0x0, symName: '__ZZN6fuzzer14RmDirRecursiveERKNSt3__112basic_stringIcNS0_11char_traitsIcEENS0_9allocatorIcEEEEEN3$_18__invokeES8_', symObjAddr: 0x131C, symBinAddr: 0x10001A950, symSize: 0x4 }
  - { offset: 0x107880, size: 0x8, addend: 0x0, symName: '__ZZN6fuzzer14RmDirRecursiveERKNSt3__112basic_stringIcNS0_11char_traitsIcEENS0_9allocatorIcEEEEEN3$_28__invokeES8_', symObjAddr: 0x1320, symBinAddr: 0x10001A954, symSize: 0x4 }
  - { offset: 0x1078A9, size: 0x8, addend: 0x0, symName: '__ZZN6fuzzer14RmDirRecursiveERKNSt3__112basic_stringIcNS0_11char_traitsIcEENS0_9allocatorIcEEEEEN3$_28__invokeES8_', symObjAddr: 0x1320, symBinAddr: 0x10001A954, symSize: 0x4 }
  - { offset: 0x1078C6, size: 0x8, addend: 0x0, symName: '__ZZN6fuzzer14RmDirRecursiveERKNSt3__112basic_stringIcNS0_11char_traitsIcEENS0_9allocatorIcEEEEEN3$_28__invokeES8_', symObjAddr: 0x1320, symBinAddr: 0x10001A954, symSize: 0x4 }
  - { offset: 0x107AD7, size: 0x8, addend: 0x0, symName: __ZNSt3__16vectorINS0_IhNS_9allocatorIhEEEENS1_IS3_EEE20__throw_length_errorB8nn200100Ev, symObjAddr: 0x153C, symBinAddr: 0x10001AA90, symSize: 0x14 }
  - { offset: 0x109AE5, size: 0x8, addend: 0x0, symName: __ZN6fuzzer6IsFileERKNSt3__112basic_stringIcNS0_11char_traitsIcEENS0_9allocatorIcEEEE, symObjAddr: 0x0, symBinAddr: 0x10001AABC, symSize: 0x60 }
  - { offset: 0x109B0B, size: 0x8, addend: 0x0, symName: __ZN6fuzzer10getDevNullEv, symObjAddr: 0xECC, symBinAddr: 0x10001B8E4, symSize: 0x80 }
  - { offset: 0x109B35, size: 0x8, addend: 0x0, symName: __MergedGlobals, symObjAddr: 0x24BE8, symBinAddr: 0x100077FC0, symSize: 0x0 }
  - { offset: 0x109B56, size: 0x8, addend: 0x0, symName: __ZN6fuzzer6IsFileERKNSt3__112basic_stringIcNS0_11char_traitsIcEENS0_9allocatorIcEEEE, symObjAddr: 0x0, symBinAddr: 0x10001AABC, symSize: 0x60 }
  - { offset: 0x109C04, size: 0x8, addend: 0x0, symName: __ZN6fuzzer11IsDirectoryERKNSt3__112basic_stringIcNS0_11char_traitsIcEENS0_9allocatorIcEEEE, symObjAddr: 0x60, symBinAddr: 0x10001AB1C, symSize: 0x60 }
  - { offset: 0x109CB2, size: 0x8, addend: 0x0, symName: __ZN6fuzzer8FileSizeERKNSt3__112basic_stringIcNS0_11char_traitsIcEENS0_9allocatorIcEEEE, symObjAddr: 0xC0, symBinAddr: 0x10001AB7C, symSize: 0x54 }
  - { offset: 0x109D76, size: 0x8, addend: 0x0, symName: __ZN6fuzzer8BasenameERKNSt3__112basic_stringIcNS0_11char_traitsIcEENS0_9allocatorIcEEEE, symObjAddr: 0x114, symBinAddr: 0x10001ABD0, symSize: 0x124 }
  - { offset: 0x10A11A, size: 0x8, addend: 0x0, symName: __ZN6fuzzer12GetSeparatorEv, symObjAddr: 0x238, symBinAddr: 0x10001ACF4, symSize: 0x8 }
  - { offset: 0x10A125, size: 0x8, addend: 0x0, symName: __ZN6fuzzer12GetSeparatorEv, symObjAddr: 0x238, symBinAddr: 0x10001ACF4, symSize: 0x8 }
  - { offset: 0x10A193, size: 0x8, addend: 0x0, symName: __ZN6fuzzer23ListFilesInDirRecursiveERKNSt3__112basic_stringIcNS0_11char_traitsIcEENS0_9allocatorIcEEEEPlPNS0_6vectorIS6_NS4_IS6_EEEEb, symObjAddr: 0x240, symBinAddr: 0x10001ACFC, symSize: 0x404 }
  - { offset: 0x10AF8F, size: 0x8, addend: 0x0, symName: __ZN6fuzzer19IterateDirRecursiveERKNSt3__112basic_stringIcNS0_11char_traitsIcEENS0_9allocatorIcEEEEPFvS8_ESA_SA_, symObjAddr: 0x6E8, symBinAddr: 0x10001B100, symSize: 0x258 }
  - { offset: 0x10B728, size: 0x8, addend: 0x0, symName: __ZN6fuzzer11IsSeparatorEc, symObjAddr: 0x940, symBinAddr: 0x10001B358, symSize: 0xC }
  - { offset: 0x10B733, size: 0x8, addend: 0x0, symName: __ZN6fuzzer11IsSeparatorEc, symObjAddr: 0x940, symBinAddr: 0x10001B358, symSize: 0xC }
  - { offset: 0x10B761, size: 0x8, addend: 0x0, symName: __ZN6fuzzer8OpenFileEiPKc, symObjAddr: 0x94C, symBinAddr: 0x10001B364, symSize: 0x4 }
  - { offset: 0x10B79F, size: 0x8, addend: 0x0, symName: __ZN6fuzzer8OpenFileEiPKc, symObjAddr: 0x94C, symBinAddr: 0x10001B364, symSize: 0x4 }
  - { offset: 0x10B7B9, size: 0x8, addend: 0x0, symName: __ZN6fuzzer9CloseFileEi, symObjAddr: 0x950, symBinAddr: 0x10001B368, symSize: 0x4 }
  - { offset: 0x10B7E9, size: 0x8, addend: 0x0, symName: __ZN6fuzzer9CloseFileEi, symObjAddr: 0x950, symBinAddr: 0x10001B368, symSize: 0x4 }
  - { offset: 0x10B7FC, size: 0x8, addend: 0x0, symName: __ZN6fuzzer13DuplicateFileEi, symObjAddr: 0x954, symBinAddr: 0x10001B36C, symSize: 0x4 }
  - { offset: 0x10B82C, size: 0x8, addend: 0x0, symName: __ZN6fuzzer13DuplicateFileEi, symObjAddr: 0x954, symBinAddr: 0x10001B36C, symSize: 0x4 }
  - { offset: 0x10B83F, size: 0x8, addend: 0x0, symName: __ZN6fuzzer10RemoveFileERKNSt3__112basic_stringIcNS0_11char_traitsIcEENS0_9allocatorIcEEEE, symObjAddr: 0x958, symBinAddr: 0x10001B370, symSize: 0x14 }
  - { offset: 0x10B86B, size: 0x8, addend: 0x0, symName: __ZN6fuzzer10RemoveFileERKNSt3__112basic_stringIcNS0_11char_traitsIcEENS0_9allocatorIcEEEE, symObjAddr: 0x958, symBinAddr: 0x10001B370, symSize: 0x14 }
  - { offset: 0x10B886, size: 0x8, addend: 0x0, symName: __ZN6fuzzer10RemoveFileERKNSt3__112basic_stringIcNS0_11char_traitsIcEENS0_9allocatorIcEEEE, symObjAddr: 0x958, symBinAddr: 0x10001B370, symSize: 0x14 }
  - { offset: 0x10B8A2, size: 0x8, addend: 0x0, symName: __ZN6fuzzer10RemoveFileERKNSt3__112basic_stringIcNS0_11char_traitsIcEENS0_9allocatorIcEEEE, symObjAddr: 0x958, symBinAddr: 0x10001B370, symSize: 0x14 }
  - { offset: 0x10B8BE, size: 0x8, addend: 0x0, symName: __ZN6fuzzer10RemoveFileERKNSt3__112basic_stringIcNS0_11char_traitsIcEENS0_9allocatorIcEEEE, symObjAddr: 0x958, symBinAddr: 0x10001B370, symSize: 0x14 }
  - { offset: 0x10B8EA, size: 0x8, addend: 0x0, symName: __ZN6fuzzer10RenameFileERKNSt3__112basic_stringIcNS0_11char_traitsIcEENS0_9allocatorIcEEEES8_, symObjAddr: 0x96C, symBinAddr: 0x10001B384, symSize: 0x24 }
  - { offset: 0x10B925, size: 0x8, addend: 0x0, symName: __ZN6fuzzer10RenameFileERKNSt3__112basic_stringIcNS0_11char_traitsIcEENS0_9allocatorIcEEEES8_, symObjAddr: 0x96C, symBinAddr: 0x10001B384, symSize: 0x24 }
  - { offset: 0x10B940, size: 0x8, addend: 0x0, symName: __ZN6fuzzer10RenameFileERKNSt3__112basic_stringIcNS0_11char_traitsIcEENS0_9allocatorIcEEEES8_, symObjAddr: 0x96C, symBinAddr: 0x10001B384, symSize: 0x24 }
  - { offset: 0x10B95C, size: 0x8, addend: 0x0, symName: __ZN6fuzzer10RenameFileERKNSt3__112basic_stringIcNS0_11char_traitsIcEENS0_9allocatorIcEEEES8_, symObjAddr: 0x96C, symBinAddr: 0x10001B384, symSize: 0x24 }
  - { offset: 0x10B978, size: 0x8, addend: 0x0, symName: __ZN6fuzzer10RenameFileERKNSt3__112basic_stringIcNS0_11char_traitsIcEENS0_9allocatorIcEEEES8_, symObjAddr: 0x96C, symBinAddr: 0x10001B384, symSize: 0x24 }
  - { offset: 0x10BA17, size: 0x8, addend: 0x0, symName: __ZN6fuzzer15GetHandleFromFdEi, symObjAddr: 0x990, symBinAddr: 0x10001B3A8, symSize: 0x8 }
  - { offset: 0x10BA45, size: 0x8, addend: 0x0, symName: __ZN6fuzzer7DirNameERKNSt3__112basic_stringIcNS0_11char_traitsIcEENS0_9allocatorIcEEEE, symObjAddr: 0x998, symBinAddr: 0x10001B3B0, symSize: 0xF8 }
  - { offset: 0x10BDD6, size: 0x8, addend: 0x0, symName: __ZN6fuzzer6TmpDirEv, symObjAddr: 0xA90, symBinAddr: 0x10001B4A8, symSize: 0x120 }
  - { offset: 0x10BDE1, size: 0x8, addend: 0x0, symName: __ZN6fuzzer6TmpDirEv, symObjAddr: 0xA90, symBinAddr: 0x10001B4A8, symSize: 0x120 }
  - { offset: 0x10C30E, size: 0x8, addend: 0x0, symName: __ZN6fuzzer25IsInterestingCoverageFileERKNSt3__112basic_stringIcNS0_11char_traitsIcEENS0_9allocatorIcEEEE, symObjAddr: 0xBB0, symBinAddr: 0x10001B5C8, symSize: 0x2C4 }
  - { offset: 0x10C319, size: 0x8, addend: 0x0, symName: __ZN6fuzzer25IsInterestingCoverageFileERKNSt3__112basic_stringIcNS0_11char_traitsIcEENS0_9allocatorIcEEEE, symObjAddr: 0xBB0, symBinAddr: 0x10001B5C8, symSize: 0x2C4 }
  - { offset: 0x10CAAB, size: 0x8, addend: 0x0, symName: __ZN6fuzzer8RawPrintEPKc, symObjAddr: 0xE74, symBinAddr: 0x10001B88C, symSize: 0x2C }
  - { offset: 0x10CAB6, size: 0x8, addend: 0x0, symName: __ZN6fuzzer8RawPrintEPKc, symObjAddr: 0xE74, symBinAddr: 0x10001B88C, symSize: 0x2C }
  - { offset: 0x10CB09, size: 0x8, addend: 0x0, symName: __ZN6fuzzer5MkDirERKNSt3__112basic_stringIcNS0_11char_traitsIcEENS0_9allocatorIcEEEE, symObjAddr: 0xEA0, symBinAddr: 0x10001B8B8, symSize: 0x18 }
  - { offset: 0x10CB35, size: 0x8, addend: 0x0, symName: __ZN6fuzzer5MkDirERKNSt3__112basic_stringIcNS0_11char_traitsIcEENS0_9allocatorIcEEEE, symObjAddr: 0xEA0, symBinAddr: 0x10001B8B8, symSize: 0x18 }
  - { offset: 0x10CB50, size: 0x8, addend: 0x0, symName: __ZN6fuzzer5MkDirERKNSt3__112basic_stringIcNS0_11char_traitsIcEENS0_9allocatorIcEEEE, symObjAddr: 0xEA0, symBinAddr: 0x10001B8B8, symSize: 0x18 }
  - { offset: 0x10CB6C, size: 0x8, addend: 0x0, symName: __ZN6fuzzer5MkDirERKNSt3__112basic_stringIcNS0_11char_traitsIcEENS0_9allocatorIcEEEE, symObjAddr: 0xEA0, symBinAddr: 0x10001B8B8, symSize: 0x18 }
  - { offset: 0x10CB88, size: 0x8, addend: 0x0, symName: __ZN6fuzzer5MkDirERKNSt3__112basic_stringIcNS0_11char_traitsIcEENS0_9allocatorIcEEEE, symObjAddr: 0xEA0, symBinAddr: 0x10001B8B8, symSize: 0x18 }
  - { offset: 0x10CBBC, size: 0x8, addend: 0x0, symName: __ZN6fuzzer5RmDirERKNSt3__112basic_stringIcNS0_11char_traitsIcEENS0_9allocatorIcEEEE, symObjAddr: 0xEB8, symBinAddr: 0x10001B8D0, symSize: 0x14 }
  - { offset: 0x10CBE8, size: 0x8, addend: 0x0, symName: __ZN6fuzzer5RmDirERKNSt3__112basic_stringIcNS0_11char_traitsIcEENS0_9allocatorIcEEEE, symObjAddr: 0xEB8, symBinAddr: 0x10001B8D0, symSize: 0x14 }
  - { offset: 0x10CC03, size: 0x8, addend: 0x0, symName: __ZN6fuzzer5RmDirERKNSt3__112basic_stringIcNS0_11char_traitsIcEENS0_9allocatorIcEEEE, symObjAddr: 0xEB8, symBinAddr: 0x10001B8D0, symSize: 0x14 }
  - { offset: 0x10CC1F, size: 0x8, addend: 0x0, symName: __ZN6fuzzer5RmDirERKNSt3__112basic_stringIcNS0_11char_traitsIcEENS0_9allocatorIcEEEE, symObjAddr: 0xEB8, symBinAddr: 0x10001B8D0, symSize: 0x14 }
  - { offset: 0x10CC3B, size: 0x8, addend: 0x0, symName: __ZN6fuzzer5RmDirERKNSt3__112basic_stringIcNS0_11char_traitsIcEENS0_9allocatorIcEEEE, symObjAddr: 0xEB8, symBinAddr: 0x10001B8D0, symSize: 0x14 }
  - { offset: 0x11201E, size: 0x8, addend: 0x0, symName: __ZN6fuzzer19IterateDirRecursiveERKNSt3__112basic_stringIcNS0_11char_traitsIcEENS0_9allocatorIcEEEEPFvS8_ESA_SA_, symObjAddr: 0x6E8, symBinAddr: 0x10001B100, symSize: 0x258 }
  - { offset: 0x1159B9, size: 0x8, addend: 0x0, symName: __ZN6fuzzer19RunningUserCallbackE, symObjAddr: 0x130C7F, symBinAddr: 0x100044208, symSize: 0x0 }
  - { offset: 0x1159D3, size: 0x8, addend: 0x0, symName: __MergedGlobals, symObjAddr: 0x130C80, symBinAddr: 0x100077FE0, symSize: 0x0 }
  - { offset: 0x115A97, size: 0x8, addend: 0x0, symName: __MergedGlobals, symObjAddr: 0x130C80, symBinAddr: 0x100077FE0, symSize: 0x0 }
  - { offset: 0x11610C, size: 0x8, addend: 0x0, symName: __ZN6fuzzer10MallocHookEPVKvm, symObjAddr: 0x28, symBinAddr: 0x10001B98C, symSize: 0xE4 }
  - { offset: 0x11633E, size: 0x8, addend: 0x0, symName: __ZN6fuzzer8FreeHookEPVKv, symObjAddr: 0x18C, symBinAddr: 0x10001BAF0, symSize: 0xC4 }
  - { offset: 0x1166F7, size: 0x8, addend: 0x0, symName: __ZN6fuzzerL20RenameFeatureSetFileERKNSt3__112basic_stringIcNS0_11char_traitsIcEENS0_9allocatorIcEEEES8_S8_, symObjAddr: 0x2C50, symBinAddr: 0x10001E5B4, symSize: 0xA0 }
  - { offset: 0x116748, size: 0x8, addend: 0x0, symName: __ZN6fuzzerL20RenameFeatureSetFileERKNSt3__112basic_stringIcNS0_11char_traitsIcEENS0_9allocatorIcEEEES8_S8_, symObjAddr: 0x2C50, symBinAddr: 0x10001E5B4, symSize: 0xA0 }
  - { offset: 0x116764, size: 0x8, addend: 0x0, symName: __ZN6fuzzerL20RenameFeatureSetFileERKNSt3__112basic_stringIcNS0_11char_traitsIcEENS0_9allocatorIcEEEES8_S8_, symObjAddr: 0x2C50, symBinAddr: 0x10001E5B4, symSize: 0xA0 }
  - { offset: 0x116780, size: 0x8, addend: 0x0, symName: __ZN6fuzzerL20RenameFeatureSetFileERKNSt3__112basic_stringIcNS0_11char_traitsIcEENS0_9allocatorIcEEEES8_S8_, symObjAddr: 0x2C50, symBinAddr: 0x10001E5B4, symSize: 0xA0 }
  - { offset: 0x116B0A, size: 0x8, addend: 0x0, symName: '__ZN6fuzzer18ForEachNonZeroByteIZNKS_7TracePC15CollectFeaturesIZNS_6Fuzzer6RunOneEPKhmbPNS_9InputInfoEbPbE3$_0EEmT_EUlmmhE_EEmS5_S5_mSA_', symObjAddr: 0x7F40, symBinAddr: 0x100021BDC, symSize: 0xAEC }
  - { offset: 0x117A2A, size: 0x8, addend: 0x0, symName: '__ZZN6fuzzer6Fuzzer6RunOneEPKhmbPNS_9InputInfoEbPbENK3$_0clEj', symObjAddr: 0x8A2C, symBinAddr: 0x1000226C8, symSize: 0x114 }
  - { offset: 0x13108E, size: 0x8, addend: 0x0, symName: __ZNSt3__113__stable_sortINS_17_ClassicAlgPolicyERNS_6__lessIvvEENS_11__wrap_iterIPN6fuzzer9SizedFileEEEEEvT1_SA_T0_NS_15iterator_traitsISA_E15difference_typeEPNSD_10value_typeEl, symObjAddr: 0x997C, symBinAddr: 0x100023618, symSize: 0x2C0 }
  - { offset: 0x131ABA, size: 0x8, addend: 0x0, symName: __ZNSt3__124__buffered_inplace_mergeB8nn200100INS_17_ClassicAlgPolicyERNS_6__lessIvvEENS_11__wrap_iterIPN6fuzzer9SizedFileEEEEEvT1_SA_SA_OT0_NS_15iterator_traitsISA_E15difference_typeESF_PNSE_10value_typeE, symObjAddr: 0xA520, symBinAddr: 0x1000241BC, symSize: 0x174 }
  - { offset: 0x136A5F, size: 0x8, addend: 0x0, symName: __ZNSt3__115__inplace_mergeINS_17_ClassicAlgPolicyERNS_6__lessIvvEENS_11__wrap_iterIPN6fuzzer9SizedFileEEEEEvT1_SA_SA_OT0_NS_15iterator_traitsISA_E15difference_typeESF_PNSE_10value_typeEl, symObjAddr: 0xA07C, symBinAddr: 0x100023D18, symSize: 0x2F0 }
  - { offset: 0x1373FD, size: 0x8, addend: 0x0, symName: __ZNSt3__118__stable_sort_moveINS_17_ClassicAlgPolicyERNS_6__lessIvvEENS_11__wrap_iterIPN6fuzzer9SizedFileEEEEEvT1_SA_T0_NS_15iterator_traitsISA_E15difference_typeEPNSD_10value_typeE, symObjAddr: 0x9C3C, symBinAddr: 0x1000238D8, symSize: 0x294 }
  - { offset: 0x137CEB, size: 0x8, addend: 0x0, symName: __ZNSt3__119__merge_move_assignB8nn200100INS_17_ClassicAlgPolicyERNS_6__lessIvvEEPN6fuzzer9SizedFileES7_NS_11__wrap_iterIS7_EEEEvT1_SA_T2_SB_T3_T0_, symObjAddr: 0x9ED0, symBinAddr: 0x100023B6C, symSize: 0x1AC }
  - { offset: 0x138513, size: 0x8, addend: 0x0, symName: __ZNSt3__121__insertion_sort_moveB8nn200100INS_17_ClassicAlgPolicyERNS_6__lessIvvEENS_11__wrap_iterIPN6fuzzer9SizedFileEEEEEvT1_SA_PNS_15iterator_traitsISA_E10value_typeET0_, symObjAddr: 0xA36C, symBinAddr: 0x100024008, symSize: 0x1B4 }
  - { offset: 0x13907D, size: 0x8, addend: 0x0, symName: __ZNSt3__116__rotate_forwardB8nn200100INS_17_ClassicAlgPolicyENS_11__wrap_iterIPN6fuzzer9SizedFileEEEEET0_S7_S7_S7_, symObjAddr: 0xA94C, symBinAddr: 0x1000245E8, symSize: 0x204 }
  - { offset: 0x139636, size: 0x8, addend: 0x0, symName: __ZNSt3__120__half_inplace_mergeB8nn200100INS_17_ClassicAlgPolicyENS_8__invertIRNS_6__lessIvvEEEENS_16reverse_iteratorIPN6fuzzer9SizedFileEEESB_NS7_INS_11__wrap_iterISA_EEEESE_SE_EEvT1_T2_T3_T4_T5_OT0_, symObjAddr: 0xA7D0, symBinAddr: 0x10002446C, symSize: 0x17C }
  - { offset: 0x139C2B, size: 0x8, addend: 0x0, symName: __ZNSt3__120__half_inplace_mergeB8nn200100INS_17_ClassicAlgPolicyERNS_6__lessIvvEEPN6fuzzer9SizedFileES7_NS_11__wrap_iterIS7_EES9_S9_EEvT1_T2_T3_T4_T5_OT0_, symObjAddr: 0xA694, symBinAddr: 0x100024330, symSize: 0x13C }
  - { offset: 0x13B251, size: 0x8, addend: 0x0, symName: __ZNSt3__16vectorIhNS_9allocatorIhEEE18__assign_with_sizeB8nn200100IPhS5_EEvT_T0_l, symObjAddr: 0x5674, symBinAddr: 0x1000203E0, symSize: 0x13C }
  - { offset: 0x13C36F, size: 0x8, addend: 0x0, symName: __ZN6fuzzer6Fuzzer23CheckExitOnSrcPosOrItemEv, symObjAddr: 0x1410, symBinAddr: 0x10001CD74, symSize: 0x324 }
  - { offset: 0x13C397, size: 0x8, addend: 0x0, symName: __MergedGlobals, symObjAddr: 0x130C80, symBinAddr: 0x100077FE0, symSize: 0x0 }
  - { offset: 0x13CD91, size: 0x8, addend: 0x0, symName: __ZN6fuzzer6Fuzzer18RereadOutputCorpusEm, symObjAddr: 0x1734, symBinAddr: 0x10001D098, symSize: 0x2D0 }
  - { offset: 0x13D451, size: 0x8, addend: 0x0, symName: __ZNSt3__124uniform_int_distributionIlEclIN6fuzzer6RandomEEElRT_RKNS1_10param_typeE, symObjAddr: 0x95D4, symBinAddr: 0x100023270, symSize: 0x1B4 }
  - { offset: 0x13D4ED, size: 0x8, addend: 0x0, symName: __ZNSt3__124uniform_int_distributionIlEclIN6fuzzer6RandomEEElRT_RKNS1_10param_typeE, symObjAddr: 0x95D4, symBinAddr: 0x100023270, symSize: 0x1B4 }
  - { offset: 0x13D6CF, size: 0x8, addend: 0x0, symName: __ZN6fuzzer16MallocFreeTracerD1Ev, symObjAddr: 0x0, symBinAddr: 0x10001B964, symSize: 0x28 }
  - { offset: 0x13D876, size: 0x8, addend: 0x0, symName: __ZN6fuzzer6Fuzzer12HandleMallocEm, symObjAddr: 0x10C, symBinAddr: 0x10001BA70, symSize: 0x80 }
  - { offset: 0x13D91E, size: 0x8, addend: 0x0, symName: __ZN6fuzzer8FreeHookEPVKv, symObjAddr: 0x18C, symBinAddr: 0x10001BAF0, symSize: 0xC4 }
  - { offset: 0x13D928, size: 0x8, addend: 0x0, symName: __ZN6fuzzer6Fuzzer15DumpCurrentUnitEPKc, symObjAddr: 0x250, symBinAddr: 0x10001BBB4, symSize: 0x18C }
  - { offset: 0x13E130, size: 0x8, addend: 0x0, symName: __ZN6fuzzer6Fuzzer15PrintFinalStatsEv, symObjAddr: 0x3DC, symBinAddr: 0x10001BD40, symSize: 0x160 }
  - { offset: 0x13E13B, size: 0x8, addend: 0x0, symName: __ZN6fuzzer6Fuzzer15PrintFinalStatsEv, symObjAddr: 0x3DC, symBinAddr: 0x10001BD40, symSize: 0x160 }
  - { offset: 0x13E798, size: 0x8, addend: 0x0, symName: __ZN6fuzzer6Fuzzer25WriteUnitToFileWithPrefixERKNSt3__16vectorIhNS1_9allocatorIhEEEEPKc, symObjAddr: 0x7D4, symBinAddr: 0x10001C138, symSize: 0x294 }
  - { offset: 0x13F372, size: 0x8, addend: 0x0, symName: __ZN6fuzzer6Fuzzer19StaticAlarmCallbackEv, symObjAddr: 0xA68, symBinAddr: 0x10001C3CC, symSize: 0xC }
  - { offset: 0x13F387, size: 0x8, addend: 0x0, symName: __ZNSt3__16vectorIjNS_9allocatorIjEEE18__assign_with_sizeB8nn200100IPjS5_EEvT_T0_l, symObjAddr: 0x57C4, symBinAddr: 0x10002051C, symSize: 0x14C }
  - { offset: 0x13F407, size: 0x8, addend: 0x0, symName: __ZN6fuzzer11InputCorpus10PrintStatsEv, symObjAddr: 0x12E8, symBinAddr: 0x10001CC4C, symSize: 0xC8 }
  - { offset: 0x13F42C, size: 0x8, addend: 0x0, symName: __ZN6fuzzer11InputCorpus10PrintStatsEv, symObjAddr: 0x12E8, symBinAddr: 0x10001CC4C, symSize: 0xC8 }
  - { offset: 0x13FBF2, size: 0x8, addend: 0x0, symName: __ZN6fuzzer6FuzzerC2EPFiPKhmERNS_11InputCorpusERNS_18MutationDispatcherERKNS_14FuzzingOptionsE, symObjAddr: 0x53C, symBinAddr: 0x10001BEA0, symSize: 0x1F8 }
  - { offset: 0x1402C5, size: 0x8, addend: 0x0, symName: __ZN6fuzzer14FuzzingOptionsC2ERKS0_, symObjAddr: 0x4714, symBinAddr: 0x100020078, symSize: 0x25C }
  - { offset: 0x140733, size: 0x8, addend: 0x0, symName: __ZN6fuzzer6Fuzzer19StaticDeathCallbackEv, symObjAddr: 0x734, symBinAddr: 0x10001C098, symSize: 0x34 }
  - { offset: 0x14078A, size: 0x8, addend: 0x0, symName: __ZN6fuzzer6Fuzzer23AllocateCurrentUnitDataEv, symObjAddr: 0x768, symBinAddr: 0x10001C0CC, symSize: 0x3C }
  - { offset: 0x1407AC, size: 0x8, addend: 0x0, symName: __ZN6fuzzer6FuzzerC1EPFiPKhmERNS_11InputCorpusERNS_18MutationDispatcherERKNS_14FuzzingOptionsE, symObjAddr: 0x7A4, symBinAddr: 0x10001C108, symSize: 0x4 }
  - { offset: 0x140812, size: 0x8, addend: 0x0, symName: __ZN6fuzzer6FuzzerC1EPFiPKhmERNS_11InputCorpusERNS_18MutationDispatcherERKNS_14FuzzingOptionsE, symObjAddr: 0x7A4, symBinAddr: 0x10001C108, symSize: 0x4 }
  - { offset: 0x140841, size: 0x8, addend: 0x0, symName: __ZN6fuzzer6Fuzzer13DeathCallbackEv, symObjAddr: 0x7A8, symBinAddr: 0x10001C10C, symSize: 0x2C }
  - { offset: 0x140AFB, size: 0x8, addend: 0x0, symName: __ZN6fuzzer6Fuzzer19StaticAlarmCallbackEv, symObjAddr: 0xA68, symBinAddr: 0x10001C3CC, symSize: 0xC }
  - { offset: 0x140B20, size: 0x8, addend: 0x0, symName: __ZN6fuzzer6Fuzzer13AlarmCallbackEv, symObjAddr: 0xA74, symBinAddr: 0x10001C3D8, symSize: 0x13C }
  - { offset: 0x140C70, size: 0x8, addend: 0x0, symName: __ZN6fuzzer6Fuzzer25StaticCrashSignalCallbackEv, symObjAddr: 0xBB0, symBinAddr: 0x10001C514, symSize: 0xC }
  - { offset: 0x140C94, size: 0x8, addend: 0x0, symName: __ZN6fuzzer6Fuzzer25StaticCrashSignalCallbackEv, symObjAddr: 0xBB0, symBinAddr: 0x10001C514, symSize: 0xC }
  - { offset: 0x140CB8, size: 0x8, addend: 0x0, symName: __ZN6fuzzer6Fuzzer13CrashCallbackEv, symObjAddr: 0xBBC, symBinAddr: 0x10001C520, symSize: 0x90 }
  - { offset: 0x140D5D, size: 0x8, addend: 0x0, symName: __ZN6fuzzer6Fuzzer18StaticExitCallbackEv, symObjAddr: 0xC4C, symBinAddr: 0x10001C5B0, symSize: 0xC }
  - { offset: 0x140D68, size: 0x8, addend: 0x0, symName: __ZN6fuzzer6Fuzzer18StaticExitCallbackEv, symObjAddr: 0xC4C, symBinAddr: 0x10001C5B0, symSize: 0xC }
  - { offset: 0x140D8C, size: 0x8, addend: 0x0, symName: __ZN6fuzzer6Fuzzer12ExitCallbackEv, symObjAddr: 0xC58, symBinAddr: 0x10001C5BC, symSize: 0x94 }
  - { offset: 0x140E23, size: 0x8, addend: 0x0, symName: __ZN6fuzzer6Fuzzer23StaticInterruptCallbackEv, symObjAddr: 0xCEC, symBinAddr: 0x10001C650, symSize: 0x14 }
  - { offset: 0x140E2E, size: 0x8, addend: 0x0, symName: __ZN6fuzzer6Fuzzer23StaticInterruptCallbackEv, symObjAddr: 0xCEC, symBinAddr: 0x10001C650, symSize: 0x14 }
  - { offset: 0x140E48, size: 0x8, addend: 0x0, symName: __ZN6fuzzer6Fuzzer17InterruptCallbackEv, symObjAddr: 0xD00, symBinAddr: 0x10001C664, symSize: 0x78 }
  - { offset: 0x140E53, size: 0x8, addend: 0x0, symName: __ZN6fuzzer6Fuzzer17InterruptCallbackEv, symObjAddr: 0xD00, symBinAddr: 0x10001C664, symSize: 0x78 }
  - { offset: 0x140F1F, size: 0x8, addend: 0x0, symName: __ZN6fuzzer6Fuzzer26StaticGracefulExitCallbackEv, symObjAddr: 0xD78, symBinAddr: 0x10001C6DC, symSize: 0x1C }
  - { offset: 0x140F2A, size: 0x8, addend: 0x0, symName: __ZN6fuzzer6Fuzzer26StaticGracefulExitCallbackEv, symObjAddr: 0xD78, symBinAddr: 0x10001C6DC, symSize: 0x1C }
  - { offset: 0x140F4F, size: 0x8, addend: 0x0, symName: __ZN6fuzzer6Fuzzer28StaticFileSizeExceedCallbackEv, symObjAddr: 0xD94, symBinAddr: 0x10001C6F8, symSize: 0x28 }
  - { offset: 0x140F84, size: 0x8, addend: 0x0, symName: __ZN6fuzzer6Fuzzer19MaybeExitGracefullyEv, symObjAddr: 0xDBC, symBinAddr: 0x10001C720, symSize: 0x74 }
  - { offset: 0x140FA3, size: 0x8, addend: 0x0, symName: __ZN6fuzzer6Fuzzer19MaybeExitGracefullyEv, symObjAddr: 0xDBC, symBinAddr: 0x10001C720, symSize: 0x74 }
  - { offset: 0x14100E, size: 0x8, addend: 0x0, symName: __ZN6fuzzer6Fuzzer17InterruptExitCodeEv, symObjAddr: 0xE30, symBinAddr: 0x10001C794, symSize: 0x10 }
  - { offset: 0x14101F, size: 0x8, addend: 0x0, symName: __ZN6fuzzer6Fuzzer17InterruptExitCodeEv, symObjAddr: 0xE30, symBinAddr: 0x10001C794, symSize: 0x10 }
  - { offset: 0x141036, size: 0x8, addend: 0x0, symName: __ZN6fuzzer6Fuzzer16RssLimitCallbackEv, symObjAddr: 0xE40, symBinAddr: 0x10001C7A4, symSize: 0xA0 }
  - { offset: 0x1410EA, size: 0x8, addend: 0x0, symName: __ZN6fuzzer6Fuzzer10PrintStatsEPKcS2_mm, symObjAddr: 0xEE0, symBinAddr: 0x10001C844, symSize: 0x408 }
  - { offset: 0x141291, size: 0x8, addend: 0x0, symName: __ZN6fuzzer6Fuzzer10PrintStatsEPKcS2_mm, symObjAddr: 0xEE0, symBinAddr: 0x10001C844, symSize: 0x408 }
  - { offset: 0x14171E, size: 0x8, addend: 0x0, symName: __ZN6fuzzer6Fuzzer14SetMaxInputLenEm, symObjAddr: 0x13B0, symBinAddr: 0x10001CD14, symSize: 0x58 }
  - { offset: 0x141776, size: 0x8, addend: 0x0, symName: __ZN6fuzzer6Fuzzer17SetMaxMutationLenEm, symObjAddr: 0x1408, symBinAddr: 0x10001CD6C, symSize: 0x8 }
  - { offset: 0x1423A2, size: 0x8, addend: 0x0, symName: __ZN6fuzzer6Fuzzer18RereadOutputCorpusEm, symObjAddr: 0x1734, symBinAddr: 0x10001D098, symSize: 0x2D0 }
  - { offset: 0x14240F, size: 0x8, addend: 0x0, symName: __ZN6fuzzer6Fuzzer18RereadOutputCorpusEm, symObjAddr: 0x1734, symBinAddr: 0x10001D098, symSize: 0x2D0 }
  - { offset: 0x14242E, size: 0x8, addend: 0x0, symName: __ZN6fuzzer6Fuzzer18RereadOutputCorpusEm, symObjAddr: 0x1734, symBinAddr: 0x10001D098, symSize: 0x2D0 }
  - { offset: 0x14244D, size: 0x8, addend: 0x0, symName: __ZN6fuzzer6Fuzzer18RereadOutputCorpusEm, symObjAddr: 0x1734, symBinAddr: 0x10001D098, symSize: 0x2D0 }
  - { offset: 0x142F53, size: 0x8, addend: 0x0, symName: __ZN6fuzzer6Fuzzer6RunOneEPKhmbPNS_9InputInfoEbPb, symObjAddr: 0x1A04, symBinAddr: 0x10001D368, symSize: 0x510 }
  - { offset: 0x14461B, size: 0x8, addend: 0x0, symName: __ZN6fuzzer6Fuzzer28PrintPulseAndReportSlowInputEPKhm, symObjAddr: 0x1F14, symBinAddr: 0x10001D878, symSize: 0x1AC }
  - { offset: 0x14489F, size: 0x8, addend: 0x0, symName: __ZN6fuzzer6Fuzzer15ExecuteCallbackEPKhm, symObjAddr: 0x2180, symBinAddr: 0x10001DAE4, symSize: 0x280 }
  - { offset: 0x14508C, size: 0x8, addend: 0x0, symName: '__ZNK6fuzzer7TracePC15CollectFeaturesIZNS_6Fuzzer6RunOneEPKhmbPNS_9InputInfoEbPbE3$_0EEmT_', symObjAddr: 0x2400, symBinAddr: 0x10001DD64, symSize: 0x554 }
  - { offset: 0x14509C, size: 0x8, addend: 0x0, symName: '__ZNK6fuzzer7TracePC15CollectFeaturesIZNS_6Fuzzer6RunOneEPKhmbPNS_9InputInfoEbPbE3$_0EEmT_', symObjAddr: 0x2400, symBinAddr: 0x10001DD64, symSize: 0x554 }
  - { offset: 0x145F9D, size: 0x8, addend: 0x0, symName: __ZN6fuzzer11InputCorpus11AddToCorpusERKNSt3__16vectorIhNS1_9allocatorIhEEEEmbbbNS1_6chrono8durationIxNS1_5ratioILl1ELl1000000EEEEERKNS2_IjNS3_IjEEEERKNS_13DataFlowTraceEPKNS_9InputInfoE, symObjAddr: 0x2954, symBinAddr: 0x10001E2B8, symSize: 0x204 }
  - { offset: 0x145FF2, size: 0x8, addend: 0x0, symName: __ZN6fuzzer6Fuzzer28PrintPulseAndReportSlowInputEPKhm, symObjAddr: 0x1F14, symBinAddr: 0x10001D878, symSize: 0x1AC }
  - { offset: 0x1465C4, size: 0x8, addend: 0x0, symName: __ZNSt3__16vectorIhNS_9allocatorIhEEEC1B8nn200100IPKhTnNS_9enable_ifIXaasr31__has_forward_iterator_categoryIT_EE5valuesr16is_constructibleIhNS_15iterator_traitsIS8_E9referenceEEE5valueEiE4typeELi0EEES8_S8_, symObjAddr: 0x20C0, symBinAddr: 0x10001DA24, symSize: 0xC0 }
  - { offset: 0x1465CF, size: 0x8, addend: 0x0, symName: __ZNSt3__16vectorIhNS_9allocatorIhEEEC1B8nn200100IPKhTnNS_9enable_ifIXaasr31__has_forward_iterator_categoryIT_EE5valuesr16is_constructibleIhNS_15iterator_traitsIS8_E9referenceEEE5valueEiE4typeELi0EEES8_S8_, symObjAddr: 0x20C0, symBinAddr: 0x10001DA24, symSize: 0xC0 }
  - { offset: 0x1468AB, size: 0x8, addend: 0x0, symName: __ZN6fuzzer6Fuzzer15ExecuteCallbackEPKhm, symObjAddr: 0x2180, symBinAddr: 0x10001DAE4, symSize: 0x280 }
  - { offset: 0x1468B6, size: 0x8, addend: 0x0, symName: __ZN6fuzzer11InputCorpus7ReplaceEPNS_9InputInfoERKNSt3__16vectorIhNS3_9allocatorIhEEEENS3_6chrono8durationIxNS3_5ratioILl1ELl1000000EEEEE, symObjAddr: 0x2B58, symBinAddr: 0x10001E4BC, symSize: 0xF8 }
  - { offset: 0x146D63, size: 0x8, addend: 0x0, symName: __ZN6fuzzer11InputCorpus11AddToCorpusERKNSt3__16vectorIhNS1_9allocatorIhEEEEmbbbNS1_6chrono8durationIxNS1_5ratioILl1ELl1000000EEEEERKNS2_IjNS3_IjEEEERKNS_13DataFlowTraceEPKNS_9InputInfoE, symObjAddr: 0x2954, symBinAddr: 0x10001E2B8, symSize: 0x204 }
  - { offset: 0x147E02, size: 0x8, addend: 0x0, symName: __ZN6fuzzer11InputCorpus10DeleteFileERKNS_9InputInfoE, symObjAddr: 0x60BC, symBinAddr: 0x100020C34, symSize: 0xBC }
  - { offset: 0x1480E6, size: 0x8, addend: 0x0, symName: __ZN6fuzzer11InputCorpus14AddRareFeatureEj, symObjAddr: 0x8E7C, symBinAddr: 0x100022B18, symSize: 0x450 }
  - { offset: 0x148B4D, size: 0x8, addend: 0x0, symName: __ZNSt3__16vectorINS_4pairIjtEENS_9allocatorIS2_EEE6insertENS_11__wrap_iterIPKS2_EEOS2_, symObjAddr: 0x93C4, symBinAddr: 0x100023060, symSize: 0x1FC }
  - { offset: 0x149386, size: 0x8, addend: 0x0, symName: __ZNSt3__16vectorINS_4pairIjtEENS_9allocatorIS2_EEE20__throw_length_errorB8nn200100Ev, symObjAddr: 0x95C0, symBinAddr: 0x10002325C, symSize: 0x14 }
  - { offset: 0x149391, size: 0x8, addend: 0x0, symName: __ZNSt3__16vectorINS_4pairIjtEENS_9allocatorIS2_EEE9push_backB8nn200100EOS2_, symObjAddr: 0x92CC, symBinAddr: 0x100022F68, symSize: 0xF8 }
  - { offset: 0x1497D8, size: 0x8, addend: 0x0, symName: __ZNSt3__16vectorINS_4pairIjtEENS_9allocatorIS2_EEE6insertENS_11__wrap_iterIPKS2_EEOS2_, symObjAddr: 0x93C4, symBinAddr: 0x100023060, symSize: 0x1FC }
  - { offset: 0x1497E3, size: 0x8, addend: 0x0, symName: '__ZZN6fuzzer6Fuzzer6RunOneEPKhmbPNS_9InputInfoEbPbENK3$_0clEj', symObjAddr: 0x8A2C, symBinAddr: 0x1000226C8, symSize: 0x114 }
  - { offset: 0x149B08, size: 0x8, addend: 0x0, symName: __ZNSt3__112__hash_tableINS_12basic_stringIcNS_11char_traitsIcEENS_9allocatorIcEEEENS_4hashIS6_EENS_8equal_toIS6_EENS4_IS6_EEE25__emplace_unique_key_argsIS6_JRKS6_EEENS_4pairINS_15__hash_iteratorIPNS_11__hash_nodeIS6_PvEEEEbEERKT_DpOT0_, symObjAddr: 0x5924, symBinAddr: 0x100020668, symSize: 0x404 }
  - { offset: 0x149D12, size: 0x8, addend: 0x0, symName: __ZNSt3__16vectorIPN6fuzzer9InputInfoENS_9allocatorIS3_EEE9push_backB8nn200100EOS3_, symObjAddr: 0x5538, symBinAddr: 0x1000202D4, symSize: 0xF8 }
  - { offset: 0x14A159, size: 0x8, addend: 0x0, symName: __ZNSt3__16vectorIPN6fuzzer9InputInfoENS_9allocatorIS3_EEE20__throw_length_errorB8nn200100Ev, symObjAddr: 0x5630, symBinAddr: 0x1000203CC, symSize: 0x14 }
  - { offset: 0x14A164, size: 0x8, addend: 0x0, symName: __ZNSt3__16vectorIhNS_9allocatorIhEEE18__assign_with_sizeB8nn200100IPhS5_EEvT_T0_l, symObjAddr: 0x5674, symBinAddr: 0x1000203E0, symSize: 0x13C }
  - { offset: 0x14AB7C, size: 0x8, addend: 0x0, symName: __ZNSt3__16vectorIjNS_9allocatorIjEEE18__assign_with_sizeB8nn200100IPjS5_EEvT_T0_l, symObjAddr: 0x57C4, symBinAddr: 0x10002051C, symSize: 0x14C }
  - { offset: 0x14B5D2, size: 0x8, addend: 0x0, symName: __ZNSt3__112__hash_tableINS_12basic_stringIcNS_11char_traitsIcEENS_9allocatorIcEEEENS_4hashIS6_EENS_8equal_toIS6_EENS4_IS6_EEE25__emplace_unique_key_argsIS6_JRKS6_EEENS_4pairINS_15__hash_iteratorIPNS_11__hash_nodeIS6_PvEEEEbEERKT_DpOT0_, symObjAddr: 0x5924, symBinAddr: 0x100020668, symSize: 0x404 }
  - { offset: 0x14BD9D, size: 0x8, addend: 0x0, symName: __ZNKSt3__112__hash_tableINS_17__hash_value_typeINS_12basic_stringIcNS_11char_traitsIcEENS_9allocatorIcEEEENS_6vectorIhNS5_IhEEEEEENS_22__unordered_map_hasherIS7_SB_NS_4hashIS7_EENS_8equal_toIS7_EELb1EEENS_21__unordered_map_equalIS7_SB_SG_SE_Lb1EEENS5_ISB_EEE4findIS7_EENS_21__hash_const_iteratorIPNS_11__hash_nodeISB_PvEEEERKT_, symObjAddr: 0x5EF4, symBinAddr: 0x100020A6C, symSize: 0x1C8 }
  - { offset: 0x14C1E9, size: 0x8, addend: 0x0, symName: __ZNSt3__112__hash_tableINS_12basic_stringIcNS_11char_traitsIcEENS_9allocatorIcEEEENS_4hashIS6_EENS_8equal_toIS6_EENS4_IS6_EEE4findIS6_EENS_15__hash_iteratorIPNS_11__hash_nodeIS6_PvEEEERKT_, symObjAddr: 0x6178, symBinAddr: 0x100020CF0, symSize: 0x1C8 }
  - { offset: 0x14C556, size: 0x8, addend: 0x0, symName: __ZNSt3__112__hash_tableINS_12basic_stringIcNS_11char_traitsIcEENS_9allocatorIcEEEENS_4hashIS6_EENS_8equal_toIS6_EENS4_IS6_EEE5eraseENS_21__hash_const_iteratorIPNS_11__hash_nodeIS6_PvEEEE, symObjAddr: 0x6340, symBinAddr: 0x100020EB8, symSize: 0x168 }
  - { offset: 0x14CEEF, size: 0x8, addend: 0x0, symName: __ZN6fuzzer6Fuzzer20TPCUpdateObservedPCsEv, symObjAddr: 0x2CF0, symBinAddr: 0x10001E654, symSize: 0xC }
  - { offset: 0x14CF18, size: 0x8, addend: 0x0, symName: __ZNK6fuzzer6Fuzzer28GetCurrentUnitInFuzzingTheadEPPKh, symObjAddr: 0x2CFC, symBinAddr: 0x10001E660, symSize: 0x10 }
  - { offset: 0x14CFB3, size: 0x8, addend: 0x0, symName: __ZN6fuzzer6Fuzzer22CrashOnOverwrittenDataEv, symObjAddr: 0x2D0C, symBinAddr: 0x10001E670, symSize: 0x58 }
  - { offset: 0x14D038, size: 0x8, addend: 0x0, symName: __ZN6fuzzer6Fuzzer19WriteToOutputCorpusERKNSt3__16vectorIhNS1_9allocatorIhEEEE, symObjAddr: 0x2D64, symBinAddr: 0x10001E6C8, symSize: 0x190 }
  - { offset: 0x14D10D, size: 0x8, addend: 0x0, symName: __ZN6fuzzer6Fuzzer19WriteToOutputCorpusERKNSt3__16vectorIhNS1_9allocatorIhEEEE, symObjAddr: 0x2D64, symBinAddr: 0x10001E6C8, symSize: 0x190 }
  - { offset: 0x14D617, size: 0x8, addend: 0x0, symName: __ZN6fuzzer6Fuzzer21PrintStatusForNewUnitERKNSt3__16vectorIhNS1_9allocatorIhEEEEPKc, symObjAddr: 0x2EF4, symBinAddr: 0x10001E858, symSize: 0x184 }
  - { offset: 0x14D670, size: 0x8, addend: 0x0, symName: __ZN6fuzzer6Fuzzer21PrintStatusForNewUnitERKNSt3__16vectorIhNS1_9allocatorIhEEEEPKc, symObjAddr: 0x2EF4, symBinAddr: 0x10001E858, symSize: 0x184 }
  - { offset: 0x14D7AD, size: 0x8, addend: 0x0, symName: __ZN6fuzzer6Fuzzer17ReportNewCoverageEPNS_9InputInfoERKNSt3__16vectorIhNS3_9allocatorIhEEEE, symObjAddr: 0x3078, symBinAddr: 0x10001E9DC, symSize: 0x1F4 }
  - { offset: 0x14DA5E, size: 0x8, addend: 0x0, symName: __ZN6fuzzer6Fuzzer23TryDetectingAMemoryLeakEPKhmb, symObjAddr: 0x326C, symBinAddr: 0x10001EBD0, symSize: 0x130 }
  - { offset: 0x14DBB2, size: 0x8, addend: 0x0, symName: __ZN6fuzzer6Fuzzer16MutateAndTestOneEv, symObjAddr: 0x339C, symBinAddr: 0x10001ED00, symSize: 0x2B0 }
  - { offset: 0x14DD42, size: 0x8, addend: 0x0, symName: __ZN6fuzzer6Fuzzer16MutateAndTestOneEv, symObjAddr: 0x339C, symBinAddr: 0x10001ED00, symSize: 0x2B0 }
  - { offset: 0x14E671, size: 0x8, addend: 0x0, symName: __ZN6fuzzer6Fuzzer14PurgeAllocatorEv, symObjAddr: 0x364C, symBinAddr: 0x10001EFB0, symSize: 0x9C }
  - { offset: 0x14E67C, size: 0x8, addend: 0x0, symName: __ZN6fuzzer11InputCorpus21ChooseUnitIdxToMutateERNS_6RandomE, symObjAddr: 0x6888, symBinAddr: 0x100021020, symSize: 0x120 }
  - { offset: 0x14EAF6, size: 0x8, addend: 0x0, symName: __ZN6fuzzer6Fuzzer14PurgeAllocatorEv, symObjAddr: 0x364C, symBinAddr: 0x10001EFB0, symSize: 0x9C }
  - { offset: 0x14F16A, size: 0x8, addend: 0x0, symName: __ZN6fuzzer6Fuzzer25ReadAndExecuteSeedCorporaERNSt3__16vectorINS_9SizedFileENS1_9allocatorIS3_EEEE, symObjAddr: 0x36E8, symBinAddr: 0x10001F04C, symSize: 0x80C }
  - { offset: 0x150DE5, size: 0x8, addend: 0x0, symName: __ZN6fuzzer6Fuzzer4LoopERNSt3__16vectorINS_9SizedFileENS1_9allocatorIS3_EEEE, symObjAddr: 0x3EF4, symBinAddr: 0x10001F858, symSize: 0x490 }
  - { offset: 0x151C33, size: 0x8, addend: 0x0, symName: __ZN6fuzzer6Fuzzer17MinimizeCrashLoopERKNSt3__16vectorIhNS1_9allocatorIhEEEE, symObjAddr: 0x4384, symBinAddr: 0x10001FCE8, symSize: 0x374 }
  - { offset: 0x1524CE, size: 0x8, addend: 0x0, symName: _LLVMFuzzerMutate, symObjAddr: 0x46F8, symBinAddr: 0x10002005C, symSize: 0x1C }
  - { offset: 0x1524ED, size: 0x8, addend: 0x0, symName: _LLVMFuzzerMutate, symObjAddr: 0x46F8, symBinAddr: 0x10002005C, symSize: 0x1C }
  - { offset: 0x15396F, size: 0x8, addend: 0x0, symName: __ZNSt3__16vectorIPN6fuzzer9InputInfoENS_9allocatorIS3_EEE20__throw_length_errorB8nn200100Ev, symObjAddr: 0x5630, symBinAddr: 0x1000203CC, symSize: 0x14 }
  - { offset: 0x153F4B, size: 0x8, addend: 0x0, symName: __ZNKSt3__112__hash_tableINS_17__hash_value_typeINS_12basic_stringIcNS_11char_traitsIcEENS_9allocatorIcEEEENS_6vectorIhNS5_IhEEEEEENS_22__unordered_map_hasherIS7_SB_NS_4hashIS7_EENS_8equal_toIS7_EELb1EEENS_21__unordered_map_equalIS7_SB_SG_SE_Lb1EEENS5_ISB_EEE4findIS7_EENS_21__hash_const_iteratorIPNS_11__hash_nodeISB_PvEEEERKT_, symObjAddr: 0x5EF4, symBinAddr: 0x100020A6C, symSize: 0x1C8 }
  - { offset: 0x154529, size: 0x8, addend: 0x0, symName: __ZN6fuzzer11InputCorpus24UpdateCorpusDistributionERNS_6RandomE, symObjAddr: 0x69A8, symBinAddr: 0x100021140, symSize: 0x608 }
  - { offset: 0x155587, size: 0x8, addend: 0x0, symName: __ZN6fuzzer9InputInfo12UpdateEnergyEmbNSt3__16chrono8durationIxNS1_5ratioILl1ELl1000000EEEEE, symObjAddr: 0x6FB0, symBinAddr: 0x100021748, symSize: 0x178 }
  - { offset: 0x155C14, size: 0x8, addend: 0x0, symName: __ZNSt3__131piecewise_constant_distributionIdE10param_typeaSERKS2_, symObjAddr: 0x79B4, symBinAddr: 0x1000218C0, symSize: 0x1D0 }
  - { offset: 0x1567F3, size: 0x8, addend: 0x0, symName: __ZNSt3__16vectorIdNS_9allocatorIdEEE18__assign_with_sizeB8nn200100IPdS5_EEvT_T0_l, symObjAddr: 0x7B84, symBinAddr: 0x100021A90, symSize: 0x14C }
  - { offset: 0x157792, size: 0x8, addend: 0x0, symName: __ZNSt3__16vectorIdNS_9allocatorIdEEE18__assign_with_sizeB8nn200100IPdS5_EEvT_T0_l, symObjAddr: 0x7B84, symBinAddr: 0x100021A90, symSize: 0x14C }
  - { offset: 0x1582C5, size: 0x8, addend: 0x0, symName: __ZN6fuzzer11InputCorpus10AddFeatureEmjb, symObjAddr: 0x8B40, symBinAddr: 0x1000227DC, symSize: 0x120 }
  - { offset: 0x15853C, size: 0x8, addend: 0x0, symName: __ZNSt3__16vectorIjNS_9allocatorIjEEE9push_backB8nn200100ERKj, symObjAddr: 0x8C60, symBinAddr: 0x1000228FC, symSize: 0xF8 }
  - { offset: 0x158977, size: 0x8, addend: 0x0, symName: __ZN6fuzzer11InputCorpus22UpdateFeatureFrequencyEPNS_9InputInfoEm, symObjAddr: 0x8D58, symBinAddr: 0x1000229F4, symSize: 0x124 }
  - { offset: 0x158982, size: 0x8, addend: 0x0, symName: __ZN6fuzzer11InputCorpus22UpdateFeatureFrequencyEPNS_9InputInfoEm, symObjAddr: 0x8D58, symBinAddr: 0x1000229F4, symSize: 0x124 }
  - { offset: 0x15921E, size: 0x8, addend: 0x0, symName: __ZNSt3__16vectorINS_4pairIjtEENS_9allocatorIS2_EEE20__throw_length_errorB8nn200100Ev, symObjAddr: 0x95C0, symBinAddr: 0x10002325C, symSize: 0x14 }
  - { offset: 0x159236, size: 0x8, addend: 0x0, symName: __ZNSt3__124uniform_int_distributionIlEclIN6fuzzer6RandomEEElRT_RKNS1_10param_typeE, symObjAddr: 0x95D4, symBinAddr: 0x100023270, symSize: 0x1B4 }
  - { offset: 0x1594BA, size: 0x8, addend: 0x0, symName: __ZNSt3__125__independent_bits_engineIN6fuzzer6RandomEmE6__evalENS_17integral_constantIbLb1EEE, symObjAddr: 0x9788, symBinAddr: 0x100023424, symSize: 0x1F4 }
  - { offset: 0x15B8D9, size: 0x8, addend: 0x0, symName: __ZN6fuzzer6Merger5ParseERKNSt3__112basic_stringIcNS1_11char_traitsIcEENS1_9allocatorIcEEEEb, symObjAddr: 0x0, symBinAddr: 0x100024850, symSize: 0x188 }
  - { offset: 0x16D597, size: 0x8, addend: 0x0, symName: '__ZNSt3__111__introsortINS_17_ClassicAlgPolicyERZN6fuzzer6Merger5MergeERKNS_3setIjNS_4lessIjEENS_9allocatorIjEEEEPS9_SB_SC_PNS_6vectorINS_12basic_stringIcNS_11char_traitsIcEENS7_IcEEEENS7_ISI_EEEEE3$_0PNS2_13MergeFileInfoELb0EEEvT1_SQ_T0_NS_15iterator_traitsISQ_E15difference_typeEb', symObjAddr: 0x98A4, symBinAddr: 0x10002B7A8, symSize: 0x1454 }
  - { offset: 0x172B5B, size: 0x8, addend: 0x0, symName: '__ZNSt3__127__insertion_sort_incompleteB8nn200100INS_17_ClassicAlgPolicyERZN6fuzzer6Merger5MergeERKNS_3setIjNS_4lessIjEENS_9allocatorIjEEEEPS9_SB_SC_PNS_6vectorINS_12basic_stringIcNS_11char_traitsIcEENS7_IcEEEENS7_ISI_EEEEE3$_0PNS2_13MergeFileInfoEEEbT1_SQ_T0_', symObjAddr: 0xB074, symBinAddr: 0x10002CF78, symSize: 0x364 }
  - { offset: 0x181F03, size: 0x8, addend: 0x0, symName: __ZNSt3__113__tree_removeB8nn200100IPNS_16__tree_node_baseIPvEEEEvT_S5_, symObjAddr: 0xCFA8, symBinAddr: 0x10002ED7C, symSize: 0x420 }
  - { offset: 0x1837FD, size: 0x8, addend: 0x0, symName: __ZNSt3__134__uninitialized_allocator_relocateB8nn200100INS_9allocatorIN6fuzzer13MergeFileInfoEEEPS3_EEvRT_T0_S8_S8_, symObjAddr: 0x90A8, symBinAddr: 0x10002B60C, symSize: 0xF8 }
  - { offset: 0x18385C, size: 0x8, addend: 0x0, symName: __ZNSt3__134__uninitialized_allocator_relocateB8nn200100INS_9allocatorIN6fuzzer13MergeFileInfoEEEPS3_EEvRT_T0_S8_S8_, symObjAddr: 0x90A8, symBinAddr: 0x10002B60C, symSize: 0xF8 }
  - { offset: 0x184B8D, size: 0x8, addend: 0x0, symName: '__ZNSt3__17__sort3B8nn200100INS_17_ClassicAlgPolicyERZN6fuzzer6Merger5MergeERKNS_3setIjNS_4lessIjEENS_9allocatorIjEEEEPS9_SB_SC_PNS_6vectorINS_12basic_stringIcNS_11char_traitsIcEENS7_IcEEEENS7_ISI_EEEEE3$_0PNS2_13MergeFileInfoETnNS_9enable_ifIXnt21__use_branchless_sortIT0_T1_EEiE4typeELi0EEEbSS_SS_SS_SR_', symObjAddr: 0xACF8, symBinAddr: 0x10002CBFC, symSize: 0x150 }
  - { offset: 0x184F6A, size: 0x8, addend: 0x0, symName: __ZNSt3__14swapB8nn200100IN6fuzzer13MergeFileInfoEEENS_9enable_ifIXaasr21is_move_constructibleIT_EE5valuesr18is_move_assignableIS4_EE5valueEvE4typeERS4_S7_, symObjAddr: 0xB3D8, symBinAddr: 0x10002D2DC, symSize: 0x170 }
  - { offset: 0x185877, size: 0x8, addend: 0x0, symName: '__ZNSt3__17__sort5B8nn200100INS_17_ClassicAlgPolicyERZN6fuzzer6Merger5MergeERKNS_3setIjNS_4lessIjEENS_9allocatorIjEEEEPS9_SB_SC_PNS_6vectorINS_12basic_stringIcNS_11char_traitsIcEENS7_IcEEEENS7_ISI_EEEEE3$_0PNS2_13MergeFileInfoETnNS_9enable_ifIXnt21__use_branchless_sortIT0_T1_EEiE4typeELi0EEEvSS_SS_SS_SS_SS_SR_', symObjAddr: 0xAF38, symBinAddr: 0x10002CE3C, symSize: 0x13C }
  - { offset: 0x185BF0, size: 0x8, addend: 0x0, symName: '__ZNSt3__17__sort4B8nn200100INS_17_ClassicAlgPolicyERZN6fuzzer6Merger5MergeERKNS_3setIjNS_4lessIjEENS_9allocatorIjEEEEPS9_SB_SC_PNS_6vectorINS_12basic_stringIcNS_11char_traitsIcEENS7_IcEEEENS7_ISI_EEEEE3$_0PNS2_13MergeFileInfoETnNS_9enable_ifIXnt21__use_branchless_sortIT0_T1_EEiE4typeELi0EEEvSS_SS_SS_SS_SR_', symObjAddr: 0xAE48, symBinAddr: 0x10002CD4C, symSize: 0xF0 }
  - { offset: 0x1891F7, size: 0x8, addend: 0x0, symName: '__ZN6fuzzer18ForEachNonZeroByteIZNKS_7TracePC15CollectFeaturesIZNS_6Fuzzer31CrashResistantMergeInternalStepERKNSt3__112basic_stringIcNS4_11char_traitsIcEENS4_9allocatorIcEEEEbE3$_1EEmT_EUlmmhE_EEmPKhSH_mSE_', symObjAddr: 0xB7CC, symBinAddr: 0x10002D5A0, symSize: 0x714 }
  - { offset: 0x189D59, size: 0x8, addend: 0x0, symName: '__ZN6fuzzer18ForEachNonZeroByteIZNKS_7TracePC15CollectFeaturesIZNS_6Fuzzer31CrashResistantMergeInternalStepERKNSt3__112basic_stringIcNS4_11char_traitsIcEENS4_9allocatorIcEEEEbE3$_2EEmT_EUlmmhE_EEmPKhSH_mSE_', symObjAddr: 0xC03C, symBinAddr: 0x10002DE10, symSize: 0xC5C }
  - { offset: 0x18AE29, size: 0x8, addend: 0x0, symName: __ZN6fuzzer19CrashResistantMergeERKNSt3__16vectorINS0_12basic_stringIcNS0_11char_traitsIcEENS0_9allocatorIcEEEENS5_IS7_EEEERKNS1_INS_9SizedFileENS5_ISC_EEEESG_PS9_RKNS0_3setIjNS0_4lessIjEENS5_IjEEEEPSM_SO_SP_RKS7_bb, symObjAddr: 0x57FC, symBinAddr: 0x100029C4C, symSize: 0x1708 }
  - { offset: 0x1921EE, size: 0x8, addend: 0x0, symName: __ZN6fuzzer6Merger5ParseERKNSt3__112basic_stringIcNS1_11char_traitsIcEENS1_9allocatorIcEEEEb, symObjAddr: 0x0, symBinAddr: 0x100024850, symSize: 0x188 }
  - { offset: 0x1924E3, size: 0x8, addend: 0x0, symName: __ZN6fuzzer6Merger5ParseERNSt3__113basic_istreamIcNS1_11char_traitsIcEEEEb, symObjAddr: 0x188, symBinAddr: 0x1000249D8, symSize: 0xB10 }
  - { offset: 0x19412D, size: 0x8, addend: 0x0, symName: __ZN6fuzzer6Merger11ParseOrExitERNSt3__113basic_istreamIcNS1_11char_traitsIcEEEEb, symObjAddr: 0xC98, symBinAddr: 0x1000254E8, symSize: 0x2C }
  - { offset: 0x194B34, size: 0x8, addend: 0x0, symName: __ZNSt3__16vectorIN6fuzzer13MergeFileInfoENS_9allocatorIS2_EEE6resizeEm, symObjAddr: 0xDFC, symBinAddr: 0x100025514, symSize: 0xCC }
  - { offset: 0x19534A, size: 0x8, addend: 0x0, symName: __ZNK6fuzzer6Merger28ApproximateMemoryConsumptionEv, symObjAddr: 0x1190, symBinAddr: 0x1000255E0, symSize: 0xE8 }
  - { offset: 0x195A99, size: 0x8, addend: 0x0, symName: __ZN6fuzzer6Merger11ParseOrExitERNSt3__113basic_istreamIcNS1_11char_traitsIcEEEEb, symObjAddr: 0xC98, symBinAddr: 0x1000254E8, symSize: 0x2C }
  - { offset: 0x195D1A, size: 0x8, addend: 0x0, symName: __ZNSt3__16vectorIN6fuzzer13MergeFileInfoENS_9allocatorIS2_EEE8__appendEm, symObjAddr: 0x8F18, symBinAddr: 0x10002B47C, symSize: 0x17C }
  - { offset: 0x196187, size: 0x8, addend: 0x0, symName: __ZNSt3__16vectorIN6fuzzer13MergeFileInfoENS_9allocatorIS2_EEE20__throw_length_errorB8nn200100Ev, symObjAddr: 0x9094, symBinAddr: 0x10002B5F8, symSize: 0x14 }
  - { offset: 0x196276, size: 0x8, addend: 0x0, symName: __ZNK6fuzzer6Merger28ApproximateMemoryConsumptionEv, symObjAddr: 0x1190, symBinAddr: 0x1000255E0, symSize: 0xE8 }
  - { offset: 0x1962C3, size: 0x8, addend: 0x0, symName: __ZNK6fuzzer6Merger28ApproximateMemoryConsumptionEv, symObjAddr: 0x1190, symBinAddr: 0x1000255E0, symSize: 0xE8 }
  - { offset: 0x196B37, size: 0x8, addend: 0x0, symName: __ZN6fuzzer6Merger5MergeERKNSt3__13setIjNS1_4lessIjEENS1_9allocatorIjEEEEPS7_S9_SA_PNS1_6vectorINS1_12basic_stringIcNS1_11char_traitsIcEENS5_IcEEEENS5_ISG_EEEE, symObjAddr: 0x1278, symBinAddr: 0x1000256C8, symSize: 0x11A4 }
  - { offset: 0x199D46, size: 0x8, addend: 0x0, symName: __ZNK6fuzzer6Merger11AllFeaturesEv, symObjAddr: 0x241C, symBinAddr: 0x10002686C, symSize: 0x350 }
  - { offset: 0x19A43D, size: 0x8, addend: 0x0, symName: __ZNSt3__16vectorIN6fuzzer13MergeFileInfoENS_9allocatorIS2_EEE16__destroy_vectorclB8nn200100Ev, symObjAddr: 0xB678, symBinAddr: 0x10002D44C, symSize: 0xC4 }
  - { offset: 0x19A5ED, size: 0x8, addend: 0x0, symName: __ZNK6fuzzer6Merger11AllFeaturesEv, symObjAddr: 0x241C, symBinAddr: 0x10002686C, symSize: 0x350 }
  - { offset: 0x19BBE3, size: 0x8, addend: 0x0, symName: __ZN6fuzzer6Fuzzer31CrashResistantMergeInternalStepERKNSt3__112basic_stringIcNS1_11char_traitsIcEENS1_9allocatorIcEEEEb, symObjAddr: 0x276C, symBinAddr: 0x100026BBC, symSize: 0xFD8 }
  - { offset: 0x19EA77, size: 0x8, addend: 0x0, symName: '__ZNK6fuzzer7TracePC15CollectFeaturesIZNS_6Fuzzer31CrashResistantMergeInternalStepERKNSt3__112basic_stringIcNS3_11char_traitsIcEENS3_9allocatorIcEEEEbE3$_1EEmT_', symObjAddr: 0x3744, symBinAddr: 0x100027B94, symSize: 0x4C0 }
  - { offset: 0x19F416, size: 0x8, addend: 0x0, symName: '__ZNK6fuzzer7TracePC15CollectFeaturesIZNS_6Fuzzer31CrashResistantMergeInternalStepERKNSt3__112basic_stringIcNS3_11char_traitsIcEENS3_9allocatorIcEEEEbE3$_1EEmT_', symObjAddr: 0x3744, symBinAddr: 0x100027B94, symSize: 0x4C0 }
  - { offset: 0x19FE18, size: 0x8, addend: 0x0, symName: '__ZNK6fuzzer7TracePC15CollectFeaturesIZNS_6Fuzzer31CrashResistantMergeInternalStepERKNSt3__112basic_stringIcNS3_11char_traitsIcEENS3_9allocatorIcEEEEbE3$_2EEmT_', symObjAddr: 0x3C04, symBinAddr: 0x100028054, symSize: 0x6A8 }
  - { offset: 0x1A0AD2, size: 0x8, addend: 0x0, symName: __ZNSt3__16__treeImNS_4lessImEENS_9allocatorImEEE7destroyEPNS_11__tree_nodeImPvEE, symObjAddr: 0xB73C, symBinAddr: 0x10002D510, symSize: 0x48 }
  - { offset: 0x1A0BEC, size: 0x8, addend: 0x0, symName: __ZNSt3__16__treeIPKN6fuzzer7TracePC12PCTableEntryENS_4lessIS5_EENS_9allocatorIS5_EEE7destroyEPNS_11__tree_nodeIS5_PvEE, symObjAddr: 0xB784, symBinAddr: 0x10002D558, symSize: 0x48 }
  - { offset: 0x1A0D06, size: 0x8, addend: 0x0, symName: __ZNSt3__16vectorIN6fuzzer13MergeFileInfoENS_9allocatorIS2_EEE16__destroy_vectorclB8nn200100Ev, symObjAddr: 0xB678, symBinAddr: 0x10002D44C, symSize: 0xC4 }
  - { offset: 0x1A178A, size: 0x8, addend: 0x0, symName: '__ZZN6fuzzer6Fuzzer31CrashResistantMergeInternalStepERKNSt3__112basic_stringIcNS1_11char_traitsIcEENS1_9allocatorIcEEEEbENK3$_2clEm', symObjAddr: 0xCC98, symBinAddr: 0x10002EA6C, symSize: 0x140 }
  - { offset: 0x1A217F, size: 0x8, addend: 0x0, symName: __ZN6fuzzer6Merger13SetCoverMergeERKNSt3__13setIjNS1_4lessIjEENS1_9allocatorIjEEEEPS7_S9_SA_PNS1_6vectorINS1_12basic_stringIcNS1_11char_traitsIcEENS5_IcEEEENS5_ISG_EEEE, symObjAddr: 0x42AC, symBinAddr: 0x1000286FC, symSize: 0x1550 }
  - { offset: 0x1A5CA1, size: 0x8, addend: 0x0, symName: __ZNSt3__16vectorIbNS_9allocatorIbEEE18__construct_at_endB8nn200100Emb, symObjAddr: 0xCDD8, symBinAddr: 0x10002EBAC, symSize: 0x1D0 }
  - { offset: 0x1A6AC5, size: 0x8, addend: 0x0, symName: __ZNSt3__16vectorIN6fuzzer13MergeFileInfoENS_9allocatorIS2_EEE18__assign_with_sizeB8nn200100IPS2_S7_EEvT_T0_l, symObjAddr: 0xD3C8, symBinAddr: 0x10002F19C, symSize: 0x2C0 }
  - { offset: 0x1A791B, size: 0x8, addend: 0x0, symName: __ZNSt3__16vectorIN6fuzzer13MergeFileInfoENS_9allocatorIS2_EEE13__vdeallocateEv, symObjAddr: 0xD688, symBinAddr: 0x10002F45C, symSize: 0xB4 }
  - { offset: 0x1A7E84, size: 0x8, addend: 0x0, symName: __ZNSt3__113unordered_setINS_12basic_stringIcNS_11char_traitsIcEENS_9allocatorIcEEEENS_4hashIS6_EENS_8equal_toIS6_EENS4_IS6_EEEC2ERKSC_, symObjAddr: 0x82AC, symBinAddr: 0x10002B354, symSize: 0x128 }
  - { offset: 0x1A8E70, size: 0x8, addend: 0x0, symName: __ZNSt3__16vectorIN6fuzzer13MergeFileInfoENS_9allocatorIS2_EEE18__insert_with_sizeB8nn200100INS_11__wrap_iterIPS2_EES9_EES9_NS7_IPKS2_EET_T0_l, symObjAddr: 0xD858, symBinAddr: 0x10002F62C, symSize: 0x404 }
  - { offset: 0x1A9EE6, size: 0x8, addend: 0x0, symName: __ZNKSt3__120__move_backward_implINS_17_ClassicAlgPolicyEEclB8nn200100IPN6fuzzer13MergeFileInfoES6_S6_EENS_4pairIT_T1_EES8_T0_S9_, symObjAddr: 0xDC5C, symBinAddr: 0x10002FA30, symSize: 0x130 }
  - { offset: 0x1AB5AF, size: 0x8, addend: 0x0, symName: __ZNSt3__113unordered_setINS_12basic_stringIcNS_11char_traitsIcEENS_9allocatorIcEEEENS_4hashIS6_EENS_8equal_toIS6_EENS4_IS6_EEEC2ERKSC_, symObjAddr: 0x82AC, symBinAddr: 0x10002B354, symSize: 0x128 }
  - { offset: 0x1AC584, size: 0x8, addend: 0x0, symName: __ZNSt3__16vectorIN6fuzzer13MergeFileInfoENS_9allocatorIS2_EEE8__appendEm, symObjAddr: 0x8F18, symBinAddr: 0x10002B47C, symSize: 0x17C }
  - { offset: 0x1AC9AD, size: 0x8, addend: 0x0, symName: __ZNSt3__114__split_bufferIN6fuzzer13MergeFileInfoERNS_9allocatorIS2_EEED2Ev, symObjAddr: 0x91A0, symBinAddr: 0x10002B704, symSize: 0xA4 }
  - { offset: 0x1ACF59, size: 0x8, addend: 0x0, symName: __ZNSt3__16vectorIN6fuzzer13MergeFileInfoENS_9allocatorIS2_EEE20__throw_length_errorB8nn200100Ev, symObjAddr: 0x9094, symBinAddr: 0x10002B5F8, symSize: 0x14 }
  - { offset: 0x1ACF71, size: 0x8, addend: 0x0, symName: __ZNSt3__134__uninitialized_allocator_relocateB8nn200100INS_9allocatorIN6fuzzer13MergeFileInfoEEEPS3_EEvRT_T0_S8_S8_, symObjAddr: 0x90A8, symBinAddr: 0x10002B60C, symSize: 0xF8 }
  - { offset: 0x1AD6FA, size: 0x8, addend: 0x0, symName: '__ZZNK6fuzzer7TracePC15CollectFeaturesIZNS_6Fuzzer31CrashResistantMergeInternalStepERKNSt3__112basic_stringIcNS3_11char_traitsIcEENS3_9allocatorIcEEEEbE3$_1EEmT_ENKUlmmhE_clEmmh', symObjAddr: 0xBEE0, symBinAddr: 0x10002DCB4, symSize: 0x15C }
  - { offset: 0x1ADC75, size: 0x8, addend: 0x0, symName: __ZNSt3__16vectorIN6fuzzer13MergeFileInfoENS_9allocatorIS2_EEE13__vdeallocateEv, symObjAddr: 0xD688, symBinAddr: 0x10002F45C, symSize: 0xB4 }
  - { offset: 0x1AE246, size: 0x8, addend: 0x0, symName: __ZN6fuzzer13MergeFileInfoC2ERKS0_, symObjAddr: 0xD73C, symBinAddr: 0x10002F510, symSize: 0x11C }
  - { offset: 0x1AE9B8, size: 0x8, addend: 0x0, symName: __ZNSt3__16vectorIN6fuzzer13MergeFileInfoENS_9allocatorIS2_EEE18__insert_with_sizeB8nn200100INS_11__wrap_iterIPS2_EES9_EES9_NS7_IPKS2_EET_T0_l, symObjAddr: 0xD858, symBinAddr: 0x10002F62C, symSize: 0x404 }
  - { offset: 0x1AEC3C, size: 0x8, addend: 0x0, symName: __ZNKSt3__120__move_backward_implINS_17_ClassicAlgPolicyEEclB8nn200100IPN6fuzzer13MergeFileInfoES6_S6_EENS_4pairIT_T1_EES8_T0_S9_, symObjAddr: 0xDC5C, symBinAddr: 0x10002FA30, symSize: 0x130 }
  - { offset: 0x1B0F72, size: 0x8, addend: 0x0, symName: __ZN6fuzzer18MutationDispatcherC2ERNS_6RandomERKNS_14FuzzingOptionsE, symObjAddr: 0x0, symBinAddr: 0x10002FB60, symSize: 0x360 }
  - { offset: 0x1B0F8B, size: 0x8, addend: 0x0, symName: __ZN6fuzzer10Dictionary12kMaxDictSizeE, symObjAddr: 0x54C8, symBinAddr: 0x10003F740, symSize: 0x0 }
  - { offset: 0x1B1D0B, size: 0x8, addend: 0x0, symName: __ZN6fuzzerL6RandChERNS_6RandomE, symObjAddr: 0x1AA8, symBinAddr: 0x100031608, symSize: 0xF0 }
  - { offset: 0x1B1D4A, size: 0x8, addend: 0x0, symName: __ZN6fuzzerL6RandChERNS_6RandomE, symObjAddr: 0x1AA8, symBinAddr: 0x100031608, symSize: 0xF0 }
  - { offset: 0x1B1D65, size: 0x8, addend: 0x0, symName: __ZN6fuzzerL6RandChERNS_6RandomE, symObjAddr: 0x1AA8, symBinAddr: 0x100031608, symSize: 0xF0 }
  - { offset: 0x1B1D80, size: 0x8, addend: 0x0, symName: __ZN6fuzzerL6RandChERNS_6RandomE, symObjAddr: 0x1AA8, symBinAddr: 0x100031608, symSize: 0xF0 }
  - { offset: 0x1B1F81, size: 0x8, addend: 0x0, symName: __ZN6fuzzer19ChangeBinaryIntegerItEEmPhmRNS_6RandomE, symObjAddr: 0x33B4, symBinAddr: 0x100032F14, symSize: 0x230 }
  - { offset: 0x1B2482, size: 0x8, addend: 0x0, symName: __ZN6fuzzer19ChangeBinaryIntegerIyEEmPhmRNS_6RandomE, symObjAddr: 0x2F60, symBinAddr: 0x100032AC0, symSize: 0x22C }
  - { offset: 0x1B2983, size: 0x8, addend: 0x0, symName: __ZN6fuzzer19ChangeBinaryIntegerIhEEmPhmRNS_6RandomE, symObjAddr: 0x35E4, symBinAddr: 0x100033144, symSize: 0x200 }
  - { offset: 0x1B2E67, size: 0x8, addend: 0x0, symName: __ZN6fuzzer19ChangeBinaryIntegerIjEEmPhmRNS_6RandomE, symObjAddr: 0x318C, symBinAddr: 0x100032CEC, symSize: 0x228 }
  - { offset: 0x1BCDA9, size: 0x8, addend: 0x0, symName: __ZNSt3__16vectorIN6fuzzer18MutationDispatcher7MutatorENS_9allocatorIS3_EEE18__insert_with_sizeB8nn200100IPKS3_S9_EENS_11__wrap_iterIPS3_EENSA_IS9_EET_T0_l, symObjAddr: 0x49D4, symBinAddr: 0x10003420C, symSize: 0x2AC }
  - { offset: 0x1BD5ED, size: 0x8, addend: 0x0, symName: __ZN6fuzzer18MutationDispatcherC2ERNS_6RandomERKNS_14FuzzingOptionsE, symObjAddr: 0x0, symBinAddr: 0x10002FB60, symSize: 0x360 }
  - { offset: 0x1BDDF7, size: 0x8, addend: 0x0, symName: __ZNSt3__16vectorIN6fuzzer18MutationDispatcher7MutatorENS_9allocatorIS3_EEE18__insert_with_sizeB8nn200100IPKS3_S9_EENS_11__wrap_iterIPS3_EENSA_IS9_EET_T0_l, symObjAddr: 0x49D4, symBinAddr: 0x10003420C, symSize: 0x2AC }
  - { offset: 0x1BE818, size: 0x8, addend: 0x0, symName: __ZNSt3__16vectorIN6fuzzer18MutationDispatcher7MutatorENS_9allocatorIS3_EEE20__throw_length_errorB8nn200100Ev, symObjAddr: 0x4C80, symBinAddr: 0x1000344B8, symSize: 0x14 }
  - { offset: 0x1BE835, size: 0x8, addend: 0x0, symName: __ZNSt3__16vectorIN6fuzzer18MutationDispatcher7MutatorENS_9allocatorIS3_EEE9push_backB8nn200100EOS3_, symObjAddr: 0x12CC, symBinAddr: 0x100030E2C, symSize: 0x130 }
  - { offset: 0x1BEC6F, size: 0x8, addend: 0x0, symName: __ZN6fuzzer18MutationDispatcher22Mutate_AddWordFromTORCEPhmm, symObjAddr: 0x13FC, symBinAddr: 0x100030F5C, symSize: 0x41C }
  - { offset: 0x1BEC7A, size: 0x8, addend: 0x0, symName: __ZNSt3__16vectorIN6fuzzer18MutationDispatcher7MutatorENS_9allocatorIS3_EEE18__assign_with_sizeB8nn200100IPS3_S8_EEvT_T0_l, symObjAddr: 0x4C94, symBinAddr: 0x1000344CC, symSize: 0x180 }
  - { offset: 0x1BF6CB, size: 0x8, addend: 0x0, symName: __ZNSt3__16vectorIhNS_9allocatorIhEEE8__appendEm, symObjAddr: 0x4E14, symBinAddr: 0x10003464C, symSize: 0x220 }
  - { offset: 0x1BF7B7, size: 0x8, addend: 0x0, symName: __ZN6fuzzer18MutationDispatcher17Mutate_EraseBytesEPhmm, symObjAddr: 0x360, symBinAddr: 0x10002FEC0, symSize: 0xE4 }
  - { offset: 0x1BF9E2, size: 0x8, addend: 0x0, symName: __ZN6fuzzer18MutationDispatcher17Mutate_InsertByteEPhmm, symObjAddr: 0x444, symBinAddr: 0x10002FFA4, symSize: 0xB8 }
  - { offset: 0x1BFB74, size: 0x8, addend: 0x0, symName: __ZN6fuzzer18MutationDispatcher26Mutate_InsertRepeatedBytesEPhmm, symObjAddr: 0x4FC, symBinAddr: 0x10003005C, symSize: 0x248 }
  - { offset: 0x1BFE8E, size: 0x8, addend: 0x0, symName: __ZN6fuzzer18MutationDispatcher17Mutate_ChangeByteEPhmm, symObjAddr: 0x744, symBinAddr: 0x1000302A4, symSize: 0xAC }
  - { offset: 0x1BFFE6, size: 0x8, addend: 0x0, symName: __ZN6fuzzer18MutationDispatcher16Mutate_ChangeBitEPhmm, symObjAddr: 0x7F0, symBinAddr: 0x100030350, symSize: 0xC0 }
  - { offset: 0x1C02DA, size: 0x8, addend: 0x0, symName: __ZN6fuzzer18MutationDispatcher19Mutate_ShuffleBytesEPhmm, symObjAddr: 0x8B0, symBinAddr: 0x100030410, symSize: 0x140 }
  - { offset: 0x1C07D6, size: 0x8, addend: 0x0, symName: __ZN6fuzzer18MutationDispatcher25Mutate_ChangeASCIIIntegerEPhmm, symObjAddr: 0x9F0, symBinAddr: 0x100030550, symSize: 0x238 }
  - { offset: 0x1C0BA0, size: 0x8, addend: 0x0, symName: __ZN6fuzzer18MutationDispatcher26Mutate_ChangeBinaryIntegerEPhmm, symObjAddr: 0xC28, symBinAddr: 0x100030788, symSize: 0xC8 }
  - { offset: 0x1C0D74, size: 0x8, addend: 0x0, symName: __ZN6fuzzer18MutationDispatcher15Mutate_CopyPartEPhmm, symObjAddr: 0xCF0, symBinAddr: 0x100030850, symSize: 0x174 }
  - { offset: 0x1C112C, size: 0x8, addend: 0x0, symName: __ZN6fuzzer18MutationDispatcher12InsertPartOfEPKhmPhmm, symObjAddr: 0x2D78, symBinAddr: 0x1000328D8, symSize: 0x1E8 }
  - { offset: 0x1C1668, size: 0x8, addend: 0x0, symName: __ZN6fuzzer18MutationDispatcher16Mutate_CrossOverEPhmm, symObjAddr: 0xE64, symBinAddr: 0x1000309C4, symSize: 0x2CC }
  - { offset: 0x1C1C00, size: 0x8, addend: 0x0, symName: __ZNSt3__16vectorIhNS_9allocatorIhEEE8__appendEm, symObjAddr: 0x4E14, symBinAddr: 0x10003464C, symSize: 0x220 }
  - { offset: 0x1C207C, size: 0x8, addend: 0x0, symName: __ZN6fuzzer18MutationDispatcher10CopyPartOfEPKhmPhm, symObjAddr: 0x2C48, symBinAddr: 0x1000327A8, symSize: 0x130 }
  - { offset: 0x1C2405, size: 0x8, addend: 0x0, symName: __ZN6fuzzer18MutationDispatcher34Mutate_AddWordFromManualDictionaryEPhmm, symObjAddr: 0x1130, symBinAddr: 0x100030C90, symSize: 0xCC }
  - { offset: 0x1C25E9, size: 0x8, addend: 0x0, symName: __ZN6fuzzer18MutationDispatcher20ApplyDictionaryEntryEPhmmRNS_15DictionaryEntryE, symObjAddr: 0x1C6C, symBinAddr: 0x1000317CC, symSize: 0x22C }
  - { offset: 0x1C2A73, size: 0x8, addend: 0x0, symName: __ZNSt3__16vectorIPN6fuzzer15DictionaryEntryENS_9allocatorIS3_EEE9push_backB8nn200100EOS3_, symObjAddr: 0x2B50, symBinAddr: 0x1000326B0, symSize: 0xF8 }
  - { offset: 0x1C2EBA, size: 0x8, addend: 0x0, symName: __ZN6fuzzer18MutationDispatcher10CopyPartOfEPKhmPhm, symObjAddr: 0x2C48, symBinAddr: 0x1000327A8, symSize: 0x130 }
  - { offset: 0x1C2EC5, size: 0x8, addend: 0x0, symName: __ZN6fuzzer18MutationDispatcher42Mutate_AddWordFromPersistentAutoDictionaryEPhmm, symObjAddr: 0x11FC, symBinAddr: 0x100030D5C, symSize: 0xD0 }
  - { offset: 0x1C3410, size: 0x8, addend: 0x0, symName: __ZNSt3__16vectorIN6fuzzer18MutationDispatcher7MutatorENS_9allocatorIS3_EEE20__throw_length_errorB8nn200100Ev, symObjAddr: 0x4C80, symBinAddr: 0x1000344B8, symSize: 0x14 }
  - { offset: 0x1C3428, size: 0x8, addend: 0x0, symName: __ZNSt3__16vectorIN6fuzzer18MutationDispatcher7MutatorENS_9allocatorIS3_EEE18__assign_with_sizeB8nn200100IPS3_S8_EEvT_T0_l, symObjAddr: 0x4C94, symBinAddr: 0x1000344CC, symSize: 0x180 }
  - { offset: 0x1C3579, size: 0x8, addend: 0x0, symName: __ZN6fuzzer18MutationDispatcher22Mutate_AddWordFromTORCEPhmm, symObjAddr: 0x13FC, symBinAddr: 0x100030F5C, symSize: 0x41C }
  - { offset: 0x1C3D84, size: 0x8, addend: 0x0, symName: __ZN6fuzzer18MutationDispatcher26MakeDictionaryEntryFromCMPIjEENS_15DictionaryEntryET_S3_PKhm, symObjAddr: 0x29FC, symBinAddr: 0x10003255C, symSize: 0x154 }
  - { offset: 0x1C41B2, size: 0x8, addend: 0x0, symName: __ZN6fuzzer18MutationDispatcher26MakeDictionaryEntryFromCMPIyEENS_15DictionaryEntryET_S3_PKhm, symObjAddr: 0x2754, symBinAddr: 0x1000322B4, symSize: 0x154 }
  - { offset: 0x1C45DF, size: 0x8, addend: 0x0, symName: __ZN6fuzzer18MutationDispatcher26MakeDictionaryEntryFromCMPEPKvS2_S2_S2_mPKhm, symObjAddr: 0x1E98, symBinAddr: 0x1000319F8, symSize: 0x89C }
  - { offset: 0x1C4D49, size: 0x8, addend: 0x0, symName: __ZN6fuzzer18MutationDispatcher26MakeDictionaryEntryFromCMPItEENS_15DictionaryEntryET_S3_PKhm, symObjAddr: 0x28A8, symBinAddr: 0x100032408, symSize: 0x154 }
  - { offset: 0x1C5185, size: 0x8, addend: 0x0, symName: __ZN6fuzzer18MutationDispatcher13Mutate_CustomEPhmm, symObjAddr: 0x1818, symBinAddr: 0x100031378, symSize: 0xC4 }
  - { offset: 0x1C52B6, size: 0x8, addend: 0x0, symName: __ZN6fuzzer18MutationDispatcher22Mutate_CustomCrossOverEPhmm, symObjAddr: 0x18DC, symBinAddr: 0x10003143C, symSize: 0x1C8 }
  - { offset: 0x1C560D, size: 0x8, addend: 0x0, symName: __ZN6fuzzer18MutationDispatcherC1ERNS_6RandomERKNS_14FuzzingOptionsE, symObjAddr: 0x1AA4, symBinAddr: 0x100031604, symSize: 0x4 }
  - { offset: 0x1C5657, size: 0x8, addend: 0x0, symName: __ZN6fuzzer18MutationDispatcherC1ERNS_6RandomERKNS_14FuzzingOptionsE, symObjAddr: 0x1AA4, symBinAddr: 0x100031604, symSize: 0x4 }
  - { offset: 0x1C5678, size: 0x8, addend: 0x0, symName: __ZN6fuzzer18MutationDispatcher21AddWordFromDictionaryERNS_10DictionaryEPhmm, symObjAddr: 0x1B98, symBinAddr: 0x1000316F8, symSize: 0xD4 }
  - { offset: 0x1C58DE, size: 0x8, addend: 0x0, symName: __ZN6fuzzer18MutationDispatcher26MakeDictionaryEntryFromCMPERKNS_9FixedWordILm64EEES4_PKhm, symObjAddr: 0x2734, symBinAddr: 0x100032294, symSize: 0x20 }
  - { offset: 0x1C5D22, size: 0x8, addend: 0x0, symName: __ZNSt3__16vectorIPN6fuzzer15DictionaryEntryENS_9allocatorIS3_EEE20__throw_length_errorB8nn200100Ev, symObjAddr: 0x53F0, symBinAddr: 0x10003486C, symSize: 0x14 }
  - { offset: 0x1C5D3A, size: 0x8, addend: 0x0, symName: __ZNSt3__16vectorIN6fuzzer15DictionaryEntryENS_9allocatorIS2_EEE20__throw_length_errorB8nn200100Ev, symObjAddr: 0x5404, symBinAddr: 0x100034880, symSize: 0x14 }
  - { offset: 0x1C5DE3, size: 0x8, addend: 0x0, symName: __ZN6fuzzer18MutationDispatcher21StartMutationSequenceEv, symObjAddr: 0x37E4, symBinAddr: 0x100033344, symSize: 0x18 }
  - { offset: 0x1C5FF7, size: 0x8, addend: 0x0, symName: __ZN6fuzzer18MutationDispatcher32RecordSuccessfulMutationSequenceEv, symObjAddr: 0x37FC, symBinAddr: 0x10003335C, symSize: 0x130 }
  - { offset: 0x1C65E1, size: 0x8, addend: 0x0, symName: __ZN6fuzzer18MutationDispatcher26PrintRecommendedDictionaryEv, symObjAddr: 0x392C, symBinAddr: 0x10003348C, symSize: 0x270 }
  - { offset: 0x1C6D28, size: 0x8, addend: 0x0, symName: __ZN6fuzzer18MutationDispatcher21PrintMutationSequenceEb, symObjAddr: 0x3B9C, symBinAddr: 0x1000336FC, symSize: 0x134 }
  - { offset: 0x1C6D33, size: 0x8, addend: 0x0, symName: __ZNSt3__16vectorIN6fuzzer15DictionaryEntryENS_9allocatorIS2_EEE20__throw_length_errorB8nn200100Ev, symObjAddr: 0x5404, symBinAddr: 0x100034880, symSize: 0x14 }
  - { offset: 0x1C6DAC, size: 0x8, addend: 0x0, symName: __ZN6fuzzer18MutationDispatcher21PrintMutationSequenceEb, symObjAddr: 0x3B9C, symBinAddr: 0x1000336FC, symSize: 0x134 }
  - { offset: 0x1C701B, size: 0x8, addend: 0x0, symName: __ZN6fuzzer18MutationDispatcher16MutationSequenceEv, symObjAddr: 0x3CD0, symBinAddr: 0x100033830, symSize: 0x6C }
  - { offset: 0x1C7201, size: 0x8, addend: 0x0, symName: __ZN6fuzzer18MutationDispatcher6MutateEPhmm, symObjAddr: 0x3D3C, symBinAddr: 0x10003389C, symSize: 0x154 }
  - { offset: 0x1C7401, size: 0x8, addend: 0x0, symName: __ZNSt3__16vectorIN6fuzzer18MutationDispatcher7MutatorENS_9allocatorIS3_EEE9push_backB8nn200100ERKS3_, symObjAddr: 0x4134, symBinAddr: 0x100033C94, symSize: 0x130 }
  - { offset: 0x1C783B, size: 0x8, addend: 0x0, symName: __ZN6fuzzer18MutationDispatcher14MutateWithMaskEPhmmRKNSt3__16vectorIhNS2_9allocatorIhEEEE, symObjAddr: 0x4264, symBinAddr: 0x100033DC4, symSize: 0x3D4 }
  - { offset: 0x1C7846, size: 0x8, addend: 0x0, symName: __ZN6fuzzer18MutationDispatcher10MutateImplEPhmmRNSt3__16vectorINS0_7MutatorENS2_9allocatorIS4_EEEE, symObjAddr: 0x3E90, symBinAddr: 0x1000339F0, symSize: 0x150 }
  - { offset: 0x1C7A0D, size: 0x8, addend: 0x0, symName: __ZN6fuzzer18MutationDispatcher13DefaultMutateEPhmm, symObjAddr: 0x3FE0, symBinAddr: 0x100033B40, symSize: 0x154 }
  - { offset: 0x1C7D8B, size: 0x8, addend: 0x0, symName: __ZN6fuzzer18MutationDispatcher14MutateWithMaskEPhmmRKNSt3__16vectorIhNS2_9allocatorIhEEEE, symObjAddr: 0x4264, symBinAddr: 0x100033DC4, symSize: 0x3D4 }
  - { offset: 0x1C7F74, size: 0x8, addend: 0x0, symName: __ZN6fuzzer18MutationDispatcher25AddWordToManualDictionaryERKNS_9FixedWordILm64EEE, symObjAddr: 0x4638, symBinAddr: 0x100034198, symSize: 0x74 }
  - { offset: 0x1CA980, size: 0x8, addend: 0x0, symName: __ZN6fuzzer11ComputeSHA1EPKhmPh, symObjAddr: 0x0, symBinAddr: 0x100034894, symSize: 0x15C }
  - { offset: 0x1CA9A0, size: 0x8, addend: 0x0, symName: __ZN6fuzzer11ComputeSHA1EPKhmPh, symObjAddr: 0x0, symBinAddr: 0x100034894, symSize: 0x15C }
  - { offset: 0x1CABA9, size: 0x8, addend: 0x0, symName: __ZN6fuzzer12Sha1ToStringEPKh, symObjAddr: 0x15C, symBinAddr: 0x1000349F0, symSize: 0x2C8 }
  - { offset: 0x1CB147, size: 0x8, addend: 0x0, symName: __ZN6fuzzer4HashERKNSt3__16vectorIhNS0_9allocatorIhEEEE, symObjAddr: 0x424, symBinAddr: 0x100034CB8, symSize: 0x50 }
  - { offset: 0x1D0461, size: 0x8, addend: 0x0, symName: __ZN12_GLOBAL__N_117sha1_addUncountedEPNS_7sha1nfoEj, symObjAddr: 0x474, symBinAddr: 0x100034D08, symSize: 0x174 }
  - { offset: 0x1D2AB9, size: 0x8, addend: 0x0, symName: __ZN6fuzzer3TPCE, symObjAddr: 0x57E00, symBinAddr: 0x100044400, symSize: 0x0 }
  - { offset: 0x1D345A, size: 0x8, addend: 0x0, symName: __ZN6fuzzer34WarnAboutDeprecatedInstrumentationEPKc, symObjAddr: 0x1DD0, symBinAddr: 0x100036C4C, symSize: 0x20 }
  - { offset: 0x1D349D, size: 0x8, addend: 0x0, symName: ___sanitizer_cov_trace_pc_guard, symObjAddr: 0x1DF0, symBinAddr: 0x100036C6C, symSize: 0x28 }
  - { offset: 0x1DB32D, size: 0x8, addend: 0x0, symName: __ZNSt3__112__hash_tableINS_17__hash_value_typeImmEENS_22__unordered_map_hasherImS2_NS_4hashImEENS_8equal_toImEELb1EEENS_21__unordered_map_equalImS2_S7_S5_Lb1EEENS_9allocatorIS2_EEE11__do_rehashILb1EEEvm, symObjAddr: 0x30A0, symBinAddr: 0x100037EC0, symSize: 0x1CC }
  - { offset: 0x1DBBE8, size: 0x8, addend: 0x0, symName: __ZN6fuzzer7TracePCD1Ev, symObjAddr: 0x0, symBinAddr: 0x100034E7C, symSize: 0x70 }
  - { offset: 0x1DC02F, size: 0x8, addend: 0x0, symName: __ZN6fuzzer7TracePC18GetTotalPCCoverageEv, symObjAddr: 0x70, symBinAddr: 0x100034EEC, symSize: 0xC }
  - { offset: 0x1DC059, size: 0x8, addend: 0x0, symName: __ZN6fuzzer7TracePC18GetTotalPCCoverageEv, symObjAddr: 0x70, symBinAddr: 0x100034EEC, symSize: 0xC }
  - { offset: 0x1DC0B7, size: 0x8, addend: 0x0, symName: __ZN6fuzzer7TracePC28HandleInline8bitCountersInitEPhS1_, symObjAddr: 0x7C, symBinAddr: 0x100034EF8, symSize: 0x1AC }
  - { offset: 0x1DC275, size: 0x8, addend: 0x0, symName: __ZN6fuzzer7TracePC13HandlePCsInitEPKmS2_, symObjAddr: 0x228, symBinAddr: 0x1000350A4, symSize: 0x48 }
  - { offset: 0x1DC2AE, size: 0x8, addend: 0x0, symName: __ZN6fuzzer7TracePC15PrintModuleInfoEv, symObjAddr: 0x270, symBinAddr: 0x1000350EC, symSize: 0x1A8 }
  - { offset: 0x1DC470, size: 0x8, addend: 0x0, symName: '__ZNK6fuzzer7TracePC15CollectFeaturesIZNS0_15PrintModuleInfoEvE3$_0EEmT_', symObjAddr: 0x418, symBinAddr: 0x100035294, symSize: 0xF4 }
  - { offset: 0x1DC481, size: 0x8, addend: 0x0, symName: '__ZNK6fuzzer7TracePC15CollectFeaturesIZNS0_15PrintModuleInfoEvE3$_0EEmT_', symObjAddr: 0x418, symBinAddr: 0x100035294, symSize: 0xF4 }
  - { offset: 0x1DC6D8, size: 0x8, addend: 0x0, symName: __ZN6fuzzer7TracePC18HandleCallerCalleeEmm, symObjAddr: 0x50C, symBinAddr: 0x100035388, symSize: 0x4C }
  - { offset: 0x1DC763, size: 0x8, addend: 0x0, symName: __ZN6fuzzer7TracePC20GetNextInstructionPcEm, symObjAddr: 0x558, symBinAddr: 0x1000353D4, symSize: 0x8 }
  - { offset: 0x1DC79F, size: 0x8, addend: 0x0, symName: __ZN6fuzzer7TracePC17UpdateObservedPCsEv, symObjAddr: 0x560, symBinAddr: 0x1000353DC, symSize: 0x5F8 }
  - { offset: 0x1DD3AA, size: 0x8, addend: 0x0, symName: __ZN6fuzzer7TracePC15PCTableEntryIdxEPKNS0_12PCTableEntryE, symObjAddr: 0xB58, symBinAddr: 0x1000359D4, symSize: 0x54 }
  - { offset: 0x1DDAF1, size: 0x8, addend: 0x0, symName: __ZNSt3__112__hash_tableINS_17__hash_value_typeImmEENS_22__unordered_map_hasherImS2_NS_4hashImEENS_8equal_toImEELb1EEENS_21__unordered_map_equalImS2_S7_S5_Lb1EEENS_9allocatorIS2_EEE25__emplace_unique_key_argsImJRKNS_21piecewise_construct_tENS_5tupleIJRKmEEENSI_IJEEEEEENS_4pairINS_15__hash_iteratorIPNS_11__hash_nodeIS2_PvEEEEbEERKT_DpOT0_, symObjAddr: 0x2D54, symBinAddr: 0x100037B88, symSize: 0x338 }
  - { offset: 0x1DE132, size: 0x8, addend: 0x0, symName: __ZN6fuzzer7TracePC15PCTableEntryIdxEPKNS0_12PCTableEntryE, symObjAddr: 0xB58, symBinAddr: 0x1000359D4, symSize: 0x54 }
  - { offset: 0x1DE19D, size: 0x8, addend: 0x0, symName: __ZN6fuzzer7TracePC17PCTableEntryByIdxEm, symObjAddr: 0xBAC, symBinAddr: 0x100035A28, symSize: 0x48 }
  - { offset: 0x1DE6E0, size: 0x8, addend: 0x0, symName: __ZN6fuzzer7TracePC16SetFocusFunctionERKNSt3__112basic_stringIcNS1_11char_traitsIcEENS1_9allocatorIcEEEE, symObjAddr: 0xBF4, symBinAddr: 0x100035A70, symSize: 0x388 }
  - { offset: 0x1DF1A1, size: 0x8, addend: 0x0, symName: __ZN6fuzzer7TracePC21ObservedFocusFunctionEv, symObjAddr: 0xF7C, symBinAddr: 0x100035DF8, symSize: 0x24 }
  - { offset: 0x1DF206, size: 0x8, addend: 0x0, symName: __ZTW21__sancov_lowest_stack, symObjAddr: 0x32E0, symBinAddr: 0x10003808C, symSize: 0x20 }
  - { offset: 0x1DF211, size: 0x8, addend: 0x0, symName: __ZN6fuzzer7TracePC21ObservedFocusFunctionEv, symObjAddr: 0xF7C, symBinAddr: 0x100035DF8, symSize: 0x24 }
  - { offset: 0x1DF23A, size: 0x8, addend: 0x0, symName: __ZN6fuzzer7TracePC13PrintCoverageEb, symObjAddr: 0xFA0, symBinAddr: 0x100035E1C, symSize: 0xA48 }
  - { offset: 0x1E161F, size: 0x8, addend: 0x0, symName: __ZN6fuzzer7TracePC17AddValueForMemcmpEPvPKvS3_mb, symObjAddr: 0x19E8, symBinAddr: 0x100036864, symSize: 0x2C4 }
  - { offset: 0x1E1A05, size: 0x8, addend: 0x0, symName: __ZN6fuzzer7TracePC17AddValueForMemcmpEPvPKvS3_mb, symObjAddr: 0x19E8, symBinAddr: 0x100036864, symSize: 0x2C4 }
  - { offset: 0x1E1D3F, size: 0x8, addend: 0x0, symName: __ZN6fuzzer7TracePC19ClearInlineCountersEv, symObjAddr: 0x1CAC, symBinAddr: 0x100036B28, symSize: 0xB8 }
  - { offset: 0x1E1EA7, size: 0x8, addend: 0x0, symName: __ZN6fuzzer7TracePC18RecordInitialStackEv, symObjAddr: 0x1D64, symBinAddr: 0x100036BE0, symSize: 0x3C }
  - { offset: 0x1E1EEE, size: 0x8, addend: 0x0, symName: __ZNK6fuzzer7TracePC17GetMaxStackOffsetEv, symObjAddr: 0x1DA0, symBinAddr: 0x100036C1C, symSize: 0x30 }
  - { offset: 0x1E1F1C, size: 0x8, addend: 0x0, symName: ___sanitizer_cov_trace_pc_guard, symObjAddr: 0x1DF0, symBinAddr: 0x100036C6C, symSize: 0x28 }
  - { offset: 0x1E1F82, size: 0x8, addend: 0x0, symName: ___sanitizer_cov_trace_pc, symObjAddr: 0x1E18, symBinAddr: 0x100036C94, symSize: 0x28 }
  - { offset: 0x1E1F93, size: 0x8, addend: 0x0, symName: ___sanitizer_cov_trace_pc, symObjAddr: 0x1E18, symBinAddr: 0x100036C94, symSize: 0x28 }
  - { offset: 0x1E1FE8, size: 0x8, addend: 0x0, symName: ___sanitizer_cov_trace_pc_guard_init, symObjAddr: 0x1E40, symBinAddr: 0x100036CBC, symSize: 0x28 }
  - { offset: 0x1E1FF9, size: 0x8, addend: 0x0, symName: ___sanitizer_cov_trace_pc_guard_init, symObjAddr: 0x1E40, symBinAddr: 0x100036CBC, symSize: 0x28 }
  - { offset: 0x1E2070, size: 0x8, addend: 0x0, symName: ___sanitizer_cov_8bit_counters_init, symObjAddr: 0x1E68, symBinAddr: 0x100036CE4, symSize: 0x14 }
  - { offset: 0x1E2081, size: 0x8, addend: 0x0, symName: ___sanitizer_cov_8bit_counters_init, symObjAddr: 0x1E68, symBinAddr: 0x100036CE4, symSize: 0x14 }
  - { offset: 0x1E211B, size: 0x8, addend: 0x0, symName: ___sanitizer_cov_pcs_init, symObjAddr: 0x1E7C, symBinAddr: 0x100036CF8, symSize: 0x64 }
  - { offset: 0x1E2153, size: 0x8, addend: 0x0, symName: ___sanitizer_cov_pcs_init, symObjAddr: 0x1E7C, symBinAddr: 0x100036CF8, symSize: 0x64 }
  - { offset: 0x1E21D3, size: 0x8, addend: 0x0, symName: ___sanitizer_cov_trace_pc_indir, symObjAddr: 0x1EE0, symBinAddr: 0x100036D5C, symSize: 0x60 }
  - { offset: 0x1E234A, size: 0x8, addend: 0x0, symName: ___sanitizer_cov_trace_cmp8, symObjAddr: 0x1F40, symBinAddr: 0x100036DBC, symSize: 0x88 }
  - { offset: 0x1E2490, size: 0x8, addend: 0x0, symName: ___sanitizer_cov_trace_const_cmp8, symObjAddr: 0x1FC8, symBinAddr: 0x100036E44, symSize: 0x88 }
  - { offset: 0x1E267B, size: 0x8, addend: 0x0, symName: ___sanitizer_cov_trace_cmp4, symObjAddr: 0x2050, symBinAddr: 0x100036ECC, symSize: 0x84 }
  - { offset: 0x1E27AF, size: 0x8, addend: 0x0, symName: ___sanitizer_cov_trace_const_cmp4, symObjAddr: 0x20D4, symBinAddr: 0x100036F50, symSize: 0x84 }
  - { offset: 0x1E294E, size: 0x8, addend: 0x0, symName: ___sanitizer_cov_trace_cmp2, symObjAddr: 0x2158, symBinAddr: 0x100036FD4, symSize: 0x70 }
  - { offset: 0x1E2A6A, size: 0x8, addend: 0x0, symName: ___sanitizer_cov_trace_const_cmp2, symObjAddr: 0x21C8, symBinAddr: 0x100037044, symSize: 0x70 }
  - { offset: 0x1E2BF1, size: 0x8, addend: 0x0, symName: ___sanitizer_cov_trace_cmp1, symObjAddr: 0x2238, symBinAddr: 0x1000370B4, symSize: 0x70 }
  - { offset: 0x1E2D0D, size: 0x8, addend: 0x0, symName: ___sanitizer_cov_trace_const_cmp1, symObjAddr: 0x22A8, symBinAddr: 0x100037124, symSize: 0x70 }
  - { offset: 0x1E2E29, size: 0x8, addend: 0x0, symName: ___sanitizer_cov_trace_switch, symObjAddr: 0x2318, symBinAddr: 0x100037194, symSize: 0x2C4 }
  - { offset: 0x1E3330, size: 0x8, addend: 0x0, symName: ___sanitizer_cov_trace_div4, symObjAddr: 0x25DC, symBinAddr: 0x100037458, symSize: 0x80 }
  - { offset: 0x1E3454, size: 0x8, addend: 0x0, symName: ___sanitizer_cov_trace_div8, symObjAddr: 0x265C, symBinAddr: 0x1000374D8, symSize: 0x84 }
  - { offset: 0x1E35FA, size: 0x8, addend: 0x0, symName: ___sanitizer_cov_trace_gep, symObjAddr: 0x26E0, symBinAddr: 0x10003755C, symSize: 0x84 }
  - { offset: 0x1E3735, size: 0x8, addend: 0x0, symName: ___sanitizer_weak_hook_memcmp, symObjAddr: 0x2764, symBinAddr: 0x1000375E0, symSize: 0x44 }
  - { offset: 0x1E37B6, size: 0x8, addend: 0x0, symName: ___sanitizer_weak_hook_strncmp, symObjAddr: 0x27A8, symBinAddr: 0x100037624, symSize: 0xA8 }
  - { offset: 0x1E3877, size: 0x8, addend: 0x0, symName: ___sanitizer_weak_hook_strcmp, symObjAddr: 0x2850, symBinAddr: 0x1000376CC, symSize: 0x74 }
  - { offset: 0x1E3960, size: 0x8, addend: 0x0, symName: ___sanitizer_weak_hook_strncasecmp, symObjAddr: 0x28C4, symBinAddr: 0x100037740, symSize: 0xA8 }
  - { offset: 0x1E3AB0, size: 0x8, addend: 0x0, symName: ___sanitizer_weak_hook_strcasecmp, symObjAddr: 0x296C, symBinAddr: 0x1000377E8, symSize: 0x74 }
  - { offset: 0x1E3B9F, size: 0x8, addend: 0x0, symName: ___sanitizer_weak_hook_strstr, symObjAddr: 0x29E0, symBinAddr: 0x10003785C, symSize: 0x94 }
  - { offset: 0x1E3C9E, size: 0x8, addend: 0x0, symName: ___sanitizer_weak_hook_strcasestr, symObjAddr: 0x2A74, symBinAddr: 0x1000378F0, symSize: 0x94 }
  - { offset: 0x1E3D9D, size: 0x8, addend: 0x0, symName: ___sanitizer_weak_hook_memmem, symObjAddr: 0x2B08, symBinAddr: 0x100037984, symSize: 0x88 }
  - { offset: 0x1E4122, size: 0x8, addend: 0x0, symName: __ZN6fuzzer7TracePCC2Ev, symObjAddr: 0x2B90, symBinAddr: 0x100037A0C, symSize: 0x17C }
  - { offset: 0x1E4916, size: 0x8, addend: 0x0, symName: __ZNSt3__112__hash_tableINS_17__hash_value_typeImmEENS_22__unordered_map_hasherImS2_NS_4hashImEENS_8equal_toImEELb1EEENS_21__unordered_map_equalImS2_S7_S5_Lb1EEENS_9allocatorIS2_EEE11__do_rehashILb1EEEvm, symObjAddr: 0x30A0, symBinAddr: 0x100037EC0, symSize: 0x1CC }
  - { offset: 0x1E6BD9, size: 0x8, addend: 0x0, symName: __ZN6fuzzer6Base64ERKNSt3__16vectorIhNS0_9allocatorIhEEEE, symObjAddr: 0xEAC, symBinAddr: 0x100038E5C, symSize: 0x23C }
  - { offset: 0x1E7084, size: 0x8, addend: 0x0, symName: __ZN6fuzzerL14SymbolizeMutexE, symObjAddr: 0x17C0, symBinAddr: 0x100044068, symSize: 0x0 }
  - { offset: 0x1E7092, size: 0x8, addend: 0x0, symName: __ZN6fuzzer13PrintHexArrayEPKhmPKc, symObjAddr: 0x0, symBinAddr: 0x1000380E8, symSize: 0x68 }
  - { offset: 0x1E714C, size: 0x8, addend: 0x0, symName: __ZN6fuzzer5PrintERKNSt3__16vectorIhNS0_9allocatorIhEEEEPKc, symObjAddr: 0x68, symBinAddr: 0x100038150, symSize: 0x68 }
  - { offset: 0x1E721E, size: 0x8, addend: 0x0, symName: __ZN6fuzzer14PrintASCIIByteEh, symObjAddr: 0xD0, symBinAddr: 0x1000381B8, symSize: 0x88 }
  - { offset: 0x1E728D, size: 0x8, addend: 0x0, symName: __ZN6fuzzer10PrintASCIIEPKhmPKc, symObjAddr: 0x158, symBinAddr: 0x100038240, symSize: 0xCC }
  - { offset: 0x1E7344, size: 0x8, addend: 0x0, symName: __ZN6fuzzer10PrintASCIIERKNSt3__16vectorIhNS0_9allocatorIhEEEEPKc, symObjAddr: 0x224, symBinAddr: 0x10003830C, symSize: 0xCC }
  - { offset: 0x1E7426, size: 0x8, addend: 0x0, symName: __ZN6fuzzer7ToASCIIEPhm, symObjAddr: 0x2F0, symBinAddr: 0x1000383D8, symSize: 0x54 }
  - { offset: 0x1E7523, size: 0x8, addend: 0x0, symName: __ZN6fuzzer7IsASCIIERKNSt3__16vectorIhNS0_9allocatorIhEEEE, symObjAddr: 0x344, symBinAddr: 0x10003842C, symSize: 0xA0 }
  - { offset: 0x1E763E, size: 0x8, addend: 0x0, symName: __ZN6fuzzer7IsASCIIEPKhm, symObjAddr: 0x3E4, symBinAddr: 0x1000384CC, symSize: 0xA8 }
  - { offset: 0x1E7664, size: 0x8, addend: 0x0, symName: __ZN6fuzzer7IsASCIIEPKhm, symObjAddr: 0x3E4, symBinAddr: 0x1000384CC, symSize: 0xA8 }
  - { offset: 0x1E76F3, size: 0x8, addend: 0x0, symName: __ZN6fuzzer23ParseOneDictionaryEntryERKNSt3__112basic_stringIcNS0_11char_traitsIcEENS0_9allocatorIcEEEEPNS0_6vectorIhNS4_IhEEEE, symObjAddr: 0x48C, symBinAddr: 0x100038574, symSize: 0x4DC }
  - { offset: 0x1E85E8, size: 0x8, addend: 0x0, symName: __ZN6fuzzer19ParseDictionaryFileERKNSt3__112basic_stringIcNS0_11char_traitsIcEENS0_9allocatorIcEEEEPNS0_6vectorINS9_IhNS4_IhEEEENS4_ISB_EEEE, symObjAddr: 0x968, symBinAddr: 0x100038A50, symSize: 0x40C }
  - { offset: 0x1E85F3, size: 0x8, addend: 0x0, symName: __ZN6fuzzer19ParseDictionaryFileERKNSt3__112basic_stringIcNS0_11char_traitsIcEENS0_9allocatorIcEEEEPNS0_6vectorINS9_IhNS4_IhEEEENS4_ISB_EEEE, symObjAddr: 0x968, symBinAddr: 0x100038A50, symSize: 0x40C }
  - { offset: 0x1E9463, size: 0x8, addend: 0x0, symName: __ZN6fuzzer10DescribePCEPKcm, symObjAddr: 0x10E8, symBinAddr: 0x100039098, symSize: 0x18C }
  - { offset: 0x1E9A31, size: 0x8, addend: 0x0, symName: __ZN6fuzzer7PrintPCEPKcS1_m, symObjAddr: 0x1274, symBinAddr: 0x100039224, symSize: 0xA8 }
  - { offset: 0x1E9A3C, size: 0x8, addend: 0x0, symName: __ZN6fuzzer7PrintPCEPKcS1_m, symObjAddr: 0x1274, symBinAddr: 0x100039224, symSize: 0xA8 }
  - { offset: 0x1E9C45, size: 0x8, addend: 0x0, symName: __ZN6fuzzer15PrintStackTraceEv, symObjAddr: 0x131C, symBinAddr: 0x1000392CC, symSize: 0x5C }
  - { offset: 0x1E9CE1, size: 0x8, addend: 0x0, symName: __ZN6fuzzer18PrintMemoryProfileEv, symObjAddr: 0x1378, symBinAddr: 0x100039328, symSize: 0x64 }
  - { offset: 0x1E9D89, size: 0x8, addend: 0x0, symName: __ZN6fuzzer16NumberOfCpuCoresEv, symObjAddr: 0x13DC, symBinAddr: 0x10003938C, symSize: 0x30 }
  - { offset: 0x1E9DC5, size: 0x8, addend: 0x0, symName: __ZN6fuzzer14SimpleFastHashEPKvmy, symObjAddr: 0x140C, symBinAddr: 0x1000393BC, symSize: 0x20 }
  - { offset: 0x1E9E2D, size: 0x8, addend: 0x0, symName: __ZN6fuzzer14SimpleFastHashEPKvmy, symObjAddr: 0x140C, symBinAddr: 0x1000393BC, symSize: 0x20 }
  - { offset: 0x1F478F, size: 0x8, addend: 0x0, symName: __ZN6fuzzerL11SignalMutexE, symObjAddr: 0xBB0, symBinAddr: 0x1000440A8, symSize: 0x0 }
  - { offset: 0x1F479D, size: 0x8, addend: 0x0, symName: __ZN6fuzzer14ExecuteCommandERKNS_7CommandE, symObjAddr: 0x0, symBinAddr: 0x1000393F8, symSize: 0x3CC }
  - { offset: 0x1F47C7, size: 0x8, addend: 0x0, symName: __MergedGlobals, symObjAddr: 0x28688, symBinAddr: 0x100078058, symSize: 0x0 }
  - { offset: 0x1F4E5A, size: 0x8, addend: 0x0, symName: __MergedGlobals, symObjAddr: 0x28688, symBinAddr: 0x100078058, symSize: 0x0 }
  - { offset: 0x1F4E74, size: 0x8, addend: 0x0, symName: __MergedGlobals, symObjAddr: 0x28688, symBinAddr: 0x100078058, symSize: 0x0 }
  - { offset: 0x1F4E90, size: 0x8, addend: 0x0, symName: __MergedGlobals, symObjAddr: 0x28688, symBinAddr: 0x100078058, symSize: 0x0 }
  - { offset: 0x1F4EAC, size: 0x8, addend: 0x0, symName: __MergedGlobals, symObjAddr: 0x28688, symBinAddr: 0x100078058, symSize: 0x0 }
  - { offset: 0x1F5185, size: 0x8, addend: 0x0, symName: __ZN6fuzzer13DiscardOutputEi, symObjAddr: 0x7C0, symBinAddr: 0x1000397C4, symSize: 0x54 }
  - { offset: 0x1F51FC, size: 0x8, addend: 0x0, symName: __ZN6fuzzer13SetThreadNameERNSt3__16threadERKNS0_12basic_stringIcNS0_11char_traitsIcEENS0_9allocatorIcEEEE, symObjAddr: 0x814, symBinAddr: 0x100039818, symSize: 0x4 }
  - { offset: 0x1FC3BD, size: 0x8, addend: 0x0, symName: __ZN6fuzzer13DiscardOutputEi, symObjAddr: 0x7C0, symBinAddr: 0x1000397C4, symSize: 0x54 }
  - { offset: 0x1FED1A, size: 0x8, addend: 0x0, symName: __ZN6fuzzer14ExecuteCommandERKNS_7CommandEPNSt3__112basic_stringIcNS3_11char_traitsIcEENS3_9allocatorIcEEEE, symObjAddr: 0x0, symBinAddr: 0x100039838, symSize: 0xE0 }
  - { offset: 0x1FED40, size: 0x8, addend: 0x0, symName: __ZN6fuzzer8PageSizeEv, symObjAddr: 0x96C, symBinAddr: 0x100039DB0, symSize: 0x60 }
  - { offset: 0x1FED6A, size: 0x8, addend: 0x0, symName: __MergedGlobals, symObjAddr: 0x28390, symBinAddr: 0x100078098, symSize: 0x0 }
  - { offset: 0x1FED94, size: 0x8, addend: 0x0, symName: __ZN6fuzzerL21upstream_segv_handlerE, symObjAddr: 0x28388, symBinAddr: 0x100078090, symSize: 0x0 }
  - { offset: 0x1FEDA2, size: 0x8, addend: 0x0, symName: __ZN6fuzzer14ExecuteCommandERKNS_7CommandEPNSt3__112basic_stringIcNS3_11char_traitsIcEENS3_9allocatorIcEEEE, symObjAddr: 0x0, symBinAddr: 0x100039838, symSize: 0xE0 }
  - { offset: 0x1FF2C0, size: 0x8, addend: 0x0, symName: __ZN6fuzzer8SetTimerEi, symObjAddr: 0x4D4, symBinAddr: 0x100039918, symSize: 0x7C }
  - { offset: 0x1FF336, size: 0x8, addend: 0x0, symName: __ZN6fuzzerL12SetSigactionEiPFviP9__siginfoPvE, symObjAddr: 0x550, symBinAddr: 0x100039994, symSize: 0xB0 }
  - { offset: 0x1FF347, size: 0x8, addend: 0x0, symName: __ZN6fuzzerL12SetSigactionEiPFviP9__siginfoPvE, symObjAddr: 0x550, symBinAddr: 0x100039994, symSize: 0xB0 }
  - { offset: 0x1FF3FB, size: 0x8, addend: 0x0, symName: __ZN6fuzzerL12AlarmHandlerEiP9__siginfoPv, symObjAddr: 0x600, symBinAddr: 0x100039A44, symSize: 0x4 }
  - { offset: 0x1FF41F, size: 0x8, addend: 0x0, symName: __ZN6fuzzerL12AlarmHandlerEiP9__siginfoPv, symObjAddr: 0x600, symBinAddr: 0x100039A44, symSize: 0x4 }
  - { offset: 0x1FF476, size: 0x8, addend: 0x0, symName: __ZN6fuzzer16SetSignalHandlerERKNS_14FuzzingOptionsE, symObjAddr: 0x604, symBinAddr: 0x100039A48, symSize: 0x238 }
  - { offset: 0x1FF5CC, size: 0x8, addend: 0x0, symName: __ZN6fuzzerL16InterruptHandlerEiP9__siginfoPv, symObjAddr: 0x83C, symBinAddr: 0x100039C80, symSize: 0x4 }
  - { offset: 0x1FF5DD, size: 0x8, addend: 0x0, symName: __ZN6fuzzerL16InterruptHandlerEiP9__siginfoPv, symObjAddr: 0x83C, symBinAddr: 0x100039C80, symSize: 0x4 }
  - { offset: 0x1FF610, size: 0x8, addend: 0x0, symName: __ZN6fuzzerL11SegvHandlerEiP9__siginfoPv, symObjAddr: 0x840, symBinAddr: 0x100039C84, symSize: 0x14 }
  - { offset: 0x1FF661, size: 0x8, addend: 0x0, symName: __ZN6fuzzerL12CrashHandlerEiP9__siginfoPv, symObjAddr: 0x854, symBinAddr: 0x100039C98, symSize: 0x4 }
  - { offset: 0x1FF694, size: 0x8, addend: 0x0, symName: __ZN6fuzzerL21FileSizeExceedHandlerEiP9__siginfoPv, symObjAddr: 0x858, symBinAddr: 0x100039C9C, symSize: 0x4 }
  - { offset: 0x1FF6C7, size: 0x8, addend: 0x0, symName: __ZN6fuzzerL19GracefulExitHandlerEiP9__siginfoPv, symObjAddr: 0x85C, symBinAddr: 0x100039CA0, symSize: 0x4 }
  - { offset: 0x1FF6FA, size: 0x8, addend: 0x0, symName: __ZN6fuzzer12SleepSecondsEi, symObjAddr: 0x860, symBinAddr: 0x100039CA4, symSize: 0x4 }
  - { offset: 0x1FF726, size: 0x8, addend: 0x0, symName: __ZN6fuzzer12SleepSecondsEi, symObjAddr: 0x860, symBinAddr: 0x100039CA4, symSize: 0x4 }
  - { offset: 0x1FF739, size: 0x8, addend: 0x0, symName: __ZN6fuzzer6GetPidEv, symObjAddr: 0x864, symBinAddr: 0x100039CA8, symSize: 0x18 }
  - { offset: 0x1FF766, size: 0x8, addend: 0x0, symName: __ZN6fuzzer12GetPeakRSSMbEv, symObjAddr: 0x87C, symBinAddr: 0x100039CC0, symSize: 0x4C }
  - { offset: 0x1FF7AD, size: 0x8, addend: 0x0, symName: __ZN6fuzzer15OpenProcessPipeEPKcS1_, symObjAddr: 0x8C8, symBinAddr: 0x100039D0C, symSize: 0x4 }
  - { offset: 0x1FF7EB, size: 0x8, addend: 0x0, symName: __ZN6fuzzer15OpenProcessPipeEPKcS1_, symObjAddr: 0x8C8, symBinAddr: 0x100039D0C, symSize: 0x4 }
  - { offset: 0x1FF805, size: 0x8, addend: 0x0, symName: __ZN6fuzzer16CloseProcessPipeEP7__sFILE, symObjAddr: 0x8CC, symBinAddr: 0x100039D10, symSize: 0x4 }
  - { offset: 0x1FF835, size: 0x8, addend: 0x0, symName: __ZN6fuzzer16CloseProcessPipeEP7__sFILE, symObjAddr: 0x8CC, symBinAddr: 0x100039D10, symSize: 0x4 }
  - { offset: 0x1FF848, size: 0x8, addend: 0x0, symName: __ZN6fuzzer12SearchMemoryEPKvmS1_m, symObjAddr: 0x8D0, symBinAddr: 0x100039D14, symSize: 0x4 }
  - { offset: 0x1FF8A2, size: 0x8, addend: 0x0, symName: __ZN6fuzzer12SearchMemoryEPKvmS1_m, symObjAddr: 0x8D0, symBinAddr: 0x100039D14, symSize: 0x4 }
  - { offset: 0x1FF8CA, size: 0x8, addend: 0x0, symName: __ZN6fuzzer14DisassembleCmdERKNSt3__112basic_stringIcNS0_11char_traitsIcEENS0_9allocatorIcEEEE, symObjAddr: 0x8D4, symBinAddr: 0x100039D18, symSize: 0x10 }
  - { offset: 0x1FF915, size: 0x8, addend: 0x0, symName: __ZN6fuzzer14SearchRegexCmdERKNSt3__112basic_stringIcNS0_11char_traitsIcEENS0_9allocatorIcEEEE, symObjAddr: 0x8E4, symBinAddr: 0x100039D28, symSize: 0x88 }
  - { offset: 0x206AFF, size: 0x8, addend: 0x0, symName: __ZN6fuzzer8SetTimerEi, symObjAddr: 0x4D4, symBinAddr: 0x100039918, symSize: 0x7C }
  - { offset: 0x209545, size: 0x8, addend: 0x0, symName: _main, symObjAddr: 0x0, symBinAddr: 0x100039E10, symSize: 0x34 }
  - { offset: 0x209553, size: 0x8, addend: 0x0, symName: _main, symObjAddr: 0x0, symBinAddr: 0x100039E10, symSize: 0x34 }
...
